Microchip MPLAB XC8 Compiler V2.10 ()

Linker command line:

-W-3 --edf=C:\Program Files (x86)\Microchip\xc8\v2.10\pic\dat\en_msgs.txt \
  -cs -h+dist/default/production\V4.X.production.sym \
  --cmf=dist/default/production\V4.X.production.cmf -z -Q18F4450 \
  -oC:\Users\UTILIS~1\AppData\Local\Temp\sa3k.2 --defsym=__MPLAB_BUILD=1 \
  -Mdist/default/production/V4.X.production.map -E1 -ver=XC8 --acfsm=1493 \
  -ASTACK=0C5h-0FFh -pstack=STACK -ACODE=00h-03FFFh -ACONST=00h-03FFFh \
  -ASMALLCONST=0500h-05FFhx59 -AMEDIUMCONST=0500h-03FFFh -ACOMRAM=01h-05Fh \
  -AABS1=00h-01FFh,0400h-04FFh -ABIGRAM=01h-01FFh,0400h-04FFh \
  -ARAM=060h-0FFh,0100h-01FFh,0400h-04FFh -ABANK0=060h-0FFh \
  -ABANK1=0100h-01FFh -ABANK4=0400h-04FFh -ASFR=0F60h-0FFFh \
  -preset_vec=00h,intcode,intcodelo,powerup,init -pramtop=0500h \
  -psmallconst=SMALLCONST -pmediumconst=MEDIUMCONST -pconst=CONST \
  -AFARRAM=00h-00h -ACONFIG=0300000h-030000Dh -pconfig=CONFIG \
  -AIDLOC=0200000h-0200007h -pidloc=IDLOC \
  -prdata=COMRAM,nvrram=COMRAM,nvbit=COMRAM,rbss=COMRAM,rbit=COMRAM \
  -pfarbss=FARRAM,fardata=FARRAM,nvFARRAM=FARRAM \
  -pintsave_regs=BIGRAM,bigbss=BIGRAM,bigdata=BIGRAM -pbss=RAM \
  -pidata=CODE,irdata=CODE,ibigdata=CODE,ifardata=CODE -prparam=COMRAM \
  C:\Users\UTILIS~1\AppData\Local\Temp\sa3k.o \
  dist/default/production\V4.X.production.o 

Object code version is 3.11

Machine type is 18F4450

Call graph: (short form)




                Name                               Link     Load   Length Selector   Space Scale
C:\Users\UTILIS~1\AppData\Local\Temp\sa3k.o
                init                                  0        0        4        0       0
                idloc                            200000   200000        8   200000       0
                config                           300000   300000        E   300000       0
dist/default/production\V4.X.production.o
                text29                             19F0     19F0       B0      CF8       0
                text28                             15C8     15C8       64      AE4       0
                text27                             138C     138C       32      9C6       0
                text26                             1F80     1F80       F0      FC0       0
                text25                             1306     1306       26      983       0
                text24                             181C     181C       98      C0E       0
                text23                             1E92     1E92       EE      F49       0
                text22                             13BE     13BE       3A      9DF       0
                text21                             1710     1710       80      B88       0
                text20                             18B4     18B4       9E      C5A       0
                text19                             162C     162C       68      B16       0
                text18                             1C1E     1C1E       C4      E0F       0
                text17                             13F8     13F8       3A      9FC       0
                text16                             1CE2     1CE2       D2      E71       0
                text15                             1AA0     1AA0       BE      D50       0
                text14                             1568     1568       60      AB4       0
                text13                             150A     150A       5E      A85       0
                text12                             1B5E     1B5E       C0      DAF       0
                text11                             132C     132C       30      996       0
                text10                             2774     2774      59E     13BA       0
                text9                              2D12     2D12      938     1689       0
                text8                              2070     2070      20E     1038       0
                text7                              1694     1694       7C      B4A       0
                text6                              1790     1790       8C      BC8       0
                text5                              1952     1952       9E      CA9       0
                text4                              1DB4     1DB4       DE      EDA       0
                text3                              135C     135C       30      9AE       0
                text2                              146E     146E       4C      A37       0
                text1                              227E     227E      4F6     113F       0
                text0                              364A     364A      9B6     1B25       0
                cstackCOMRAM                          1        1       5E        1       1
                cstackBANK0                          B5       B5       10       60       1
                cstackBANK1                         100      100       DC      100       1
                bssBANK4                            400      400       DC      400       1
                bssBANK1                            1DC      1DC       10      100       1
                dataBANK0                            60       60       3C       60       1
                bssBANK0                             9C       9C       19       60       1
                bssCOMRAM                            5F       5F        1        1       1
                cinit                              14BA     14BA       50      A5D       0
                idataBANK0                         1432     1432       3C     1432       0

TOTAL           Name                               Link     Load   Length     Space
        CLASS   STACK          

        CLASS   CODE           
                init                                  0        0        4         0
                text29                             19F0     19F0       B0         0
                text28                             15C8     15C8       64         0
                text27                             138C     138C       32         0
                text26                             1F80     1F80       F0         0
                text25                             1306     1306       26         0
                text24                             181C     181C       98         0
                text23                             1E92     1E92       EE         0
                text22                             13BE     13BE       3A         0
                text21                             1710     1710       80         0
                text20                             18B4     18B4       9E         0
                text19                             162C     162C       68         0
                text18                             1C1E     1C1E       C4         0
                text17                             13F8     13F8       3A         0
                text16                             1CE2     1CE2       D2         0
                text15                             1AA0     1AA0       BE         0
                text14                             1568     1568       60         0
                text13                             150A     150A       5E         0
                text12                             1B5E     1B5E       C0         0
                text11                             132C     132C       30         0
                text10                             2774     2774      59E         0
                text9                              2D12     2D12      938         0
                text8                              2070     2070      20E         0
                text7                              1694     1694       7C         0
                text6                              1790     1790       8C         0
                text5                              1952     1952       9E         0
                text4                              1DB4     1DB4       DE         0
                text3                              135C     135C       30         0
                text2                              146E     146E       4C         0
                text1                              227E     227E      4F6         0
                text0                              364A     364A      9B6         0
                cinit                              14BA     14BA       50         0
                idataBANK0                         1432     1432       3C         0

        CLASS   CONST          

        CLASS   SMALLCONST     

        CLASS   MEDIUMCONST    

        CLASS   COMRAM         
                cstackCOMRAM                          1        1       5E         1
                bssCOMRAM                            5F       5F        1         1

        CLASS   ABS1           

        CLASS   BIGRAM         

        CLASS   RAM            

        CLASS   BANK0          
                cstackBANK0                          B5       B5       10         1
                dataBANK0                            60       60       3C         1
                bssBANK0                             9C       9C       19         1

        CLASS   BANK1          
                cstackBANK1                         100      100       DC         1
                bssBANK1                            1DC      1DC       10         1

        CLASS   BANK4          
                bssBANK4                            400      400       DC         1

        CLASS   SFR            

        CLASS   FARRAM         

        CLASS   CONFIG         
                config                           300000   300000        E         0

        CLASS   IDLOC          
                idloc                            200000   200000        8         0



SEGMENTS        Name                           Load    Length   Top    Selector   Space  Class

                reset_vec                      000000  000004  000004         0       0  CODE    
                cstackCOMRAM                   000001  00005F  000060         1       1  COMRAM  
                dataBANK0                      000060  000065  0000C5        60       1  BANK0   
                cstackBANK1                    000100  0000EC  0001EC       100       1  BANK1   
                bssBANK4                       000400  0000DC  0004DC       400       1  BANK4   
                text25                         001306  000026  00132C       983       0  CODE    
                text11                         00132C  000030  00135C       996       0  CODE    
                text3                          00135C  000030  00138C       9AE       0  CODE    
                text27                         00138C  000032  0013BE       9C6       0  CODE    
                text22                         0013BE  00003A  0013F8       9DF       0  CODE    
                text17                         0013F8  00003A  001432       9FC       0  CODE    
                idataBANK0                     001432  00003C  00146E      1432       0  CODE    
                text2                          00146E  00004C  0014BA       A37       0  CODE    
                cinit                          0014BA  000050  00150A       A5D       0  CODE    
                text13                         00150A  00005E  001568       A85       0  CODE    
                text14                         001568  000060  0015C8       AB4       0  CODE    
                text28                         0015C8  000064  00162C       AE4       0  CODE    
                text19                         00162C  000068  001694       B16       0  CODE    
                text7                          001694  00007C  001710       B4A       0  CODE    
                text21                         001710  000080  001790       B88       0  CODE    
                text6                          001790  00008C  00181C       BC8       0  CODE    
                text24                         00181C  000098  0018B4       C0E       0  CODE    
                text20                         0018B4  00009E  001952       C5A       0  CODE    
                text5                          001952  00009E  0019F0       CA9       0  CODE    
                text29                         0019F0  0000B0  001AA0       CF8       0  CODE    
                text15                         001AA0  0000BE  001B5E       D50       0  CODE    
                text12                         001B5E  0000C0  001C1E       DAF       0  CODE    
                text18                         001C1E  0000C4  001CE2       E0F       0  CODE    
                text16                         001CE2  0000D2  001DB4       E71       0  CODE    
                text4                          001DB4  0000DE  001E92       EDA       0  CODE    
                text23                         001E92  0000EE  001F80       F49       0  CODE    
                text26                         001F80  0000F0  002070       FC0       0  CODE    
                text8                          002070  00020E  00227E      1038       0  CODE    
                text1                          00227E  0004F6  002774      113F       0  CODE    
                text10                         002774  00059E  002D12      13BA       0  CODE    
                text9                          002D12  000938  00364A      1689       0  CODE    
                text0                          00364A  0009B6  004000      1B25       0  CODE    
                idloc                          200000  000008  200008    200000       0  IDLOC   
                config                         300000  00000E  30000E    300000       0  CONFIG  


UNUSED ADDRESS RANGES

        Name                Unused          Largest block    Delta
        BANK0            0000C5-0000FF               3B
        BANK1            0001EC-0001FF               14
        BANK4            0004DC-0004FF               24
        BIGRAM           0000C5-0000FF               3B
                         0001EC-0001FF               14
                         0004DC-0004FF               24
        CODE             000004-001305             1302
        CONST            000004-001305             1302
        MEDIUMCONST      000500-001305              E06
        RAM              0000C5-0000FF               3B
                         0001EC-0001FF               14
                         0004DC-0004FF               24
        SFR              000F60-000FFF               A0
        SMALLCONST       000500-001305              100
        STACK            0000C5-0000FF               3B

                                  Symbol Table

?___awdiv                   cstackCOMRAM 000001
?___awmod                   cstackCOMRAM 000023
?___lwmod                   cstackCOMRAM 000001
?___omul                    cstackCOMRAM 000001
?___wmul                    cstackCOMRAM 000001
?_checkCollision            cstackCOMRAM 000001
?_checkLine                 cstackCOMRAM 000007
?_rand                      cstackCOMRAM 000019
?_time                      cstackCOMRAM 000001
_ADCON0                     (abs)        000FC2
_ADCON1                     (abs)        000FC1
_LATBbits                   (abs)        000F8A
_LATD                       (abs)        000F8C
_PORTA                      (abs)        000F80
_PORTB                      (abs)        000F81
_PORTC                      (abs)        000F82
_PORTCbits                  (abs)        000F82
_PORTD                      (abs)        000F83
_PORTE                      (abs)        000F84
_TRISA                      (abs)        000F92
_TRISB                      (abs)        000F93
_TRISC                      (abs)        000F94
_TRISCbits                  (abs)        000F94
_TRISD                      (abs)        000F95
_TRISE                      (abs)        000F96
__CFG_BOR$OFF               (abs)        000000
__CFG_DEBUG$ON              (abs)        000000
__CFG_FOSC$HS               (abs)        000000
__CFG_LVP$OFF               (abs)        000000
__CFG_PWRT$OFF              (abs)        000000
__CFG_WDT$OFF               (abs)        000000
__HRAM                      (abs)        000000
__Habs1                     abs1         000000
__Hbank0                    bank0        000000
__Hbank1                    bank1        000000
__Hbank4                    bank4        000000
__Hbigbss                   bigbss       000000
__Hbigdata                  bigdata      000000
__Hbigram                   bigram       000000
__Hbss                      bss          000000
__HbssBANK0                 bssBANK0     000000
__HbssBANK1                 bssBANK1     000000
__HbssBANK4                 bssBANK4     000000
__HbssCOMRAM                bssCOMRAM    000000
__Hcinit                    cinit        000000
__Hclrtext                  clrtext      000000
__Hcomram                   comram       000000
__Hconfig                   config       30000E
__Hconst                    const        000000
__HcstackBANK0              cstackBANK0  000000
__HcstackBANK1              cstackBANK1  000000
__HcstackCOMRAM             cstackCOMRAM 000000
__Hdata                     data         000000
__HdataBANK0                dataBANK0    000000
__Hfarbss                   farbss       000000
__Hfardata                  fardata      000000
__Hibigdata                 ibigdata     000000
__Hidata                    idata        000000
__HidataBANK0               idataBANK0   000000
__Hidloc                    idloc        200008
__Hifardata                 ifardata     000000
__Hinit                     init         000004
__Hintcode                  intcode      000000
__Hintcode_body             intcode_body 000000
__Hintcodelo                intcodelo    000000
__Hintentry                 intentry     000000
__Hintret                   intret       000000
__Hintsave_regs             intsave_regs 000000
__Hirdata                   irdata       000000
__Hmediumconst              mediumconst  000000
__HnvFARRAM                 nvFARRAM     000000
__Hnvbit                    nvbit        000000
__Hnvrram                   nvrram       000000
__Hparam                    rparam       000000
__Hpowerup                  powerup      000000
__Hram                      ram          000000
__Hramtop                   ramtop       000500
__Hrbit                     rbit         000000
__Hrbss                     rbss         000000
__Hrdata                    rdata        000000
__Hreset_vec                reset_vec    000000
__Hrparam                   rparam       000000
__Hsfr                      sfr          000000
__Hsmallconst               smallconst   000000
__Hspace_0                  (abs)        30000E
__Hspace_1                  (abs)        0004DC
__Hspace_2                  (abs)        000000
__Hstack                    stack        000000
__Hstruct                   struct       000000
__Htemp                     temp         000000
__Htext                     text         000000
__Htext0                    text0        000000
__Htext1                    text1        000000
__Htext10                   text10       000000
__Htext11                   text11       000000
__Htext12                   text12       000000
__Htext13                   text13       000000
__Htext14                   text14       000000
__Htext15                   text15       000000
__Htext16                   text16       000000
__Htext17                   text17       000000
__Htext18                   text18       000000
__Htext19                   text19       000000
__Htext2                    text2        000000
__Htext20                   text20       000000
__Htext21                   text21       000000
__Htext22                   text22       000000
__Htext23                   text23       000000
__Htext24                   text24       000000
__Htext25                   text25       000000
__Htext26                   text26       000000
__Htext27                   text27       000000
__Htext28                   text28       000000
__Htext29                   text29       000000
__Htext3                    text3        000000
__Htext4                    text4        000000
__Htext5                    text5        000000
__Htext6                    text6        000000
__Htext7                    text7        000000
__Htext8                    text8        000000
__Htext9                    text9        000000
__LRAM                      (abs)        000001
__Labs1                     abs1         000000
__Lbank0                    bank0        000000
__Lbank1                    bank1        000000
__Lbank4                    bank4        000000
__Lbigbss                   bigbss       000000
__Lbigdata                  bigdata      000000
__Lbigram                   bigram       000000
__Lbss                      bss          000000
__LbssBANK0                 bssBANK0     000000
__LbssBANK1                 bssBANK1     000000
__LbssBANK4                 bssBANK4     000000
__LbssCOMRAM                bssCOMRAM    000000
__Lcinit                    cinit        000000
__Lclrtext                  clrtext      000000
__Lcomram                   comram       000000
__Lconfig                   config       300000
__Lconst                    const        000000
__LcstackBANK0              cstackBANK0  000000
__LcstackBANK1              cstackBANK1  000000
__LcstackCOMRAM             cstackCOMRAM 000000
__Ldata                     data         000000
__LdataBANK0                dataBANK0    000000
__Lfarbss                   farbss       000000
__Lfardata                  fardata      000000
__Libigdata                 ibigdata     000000
__Lidata                    idata        000000
__LidataBANK0               idataBANK0   000000
__Lidloc                    idloc        200000
__Lifardata                 ifardata     000000
__Linit                     init         000000
__Lintcode                  intcode      000000
__Lintcode_body             intcode_body 000000
__Lintcodelo                intcodelo    000000
__Lintentry                 intentry     000000
__Lintret                   intret       000000
__Lintsave_regs             intsave_regs 000000
__Lirdata                   irdata       000000
__Lmediumconst              mediumconst  000000
__LnvFARRAM                 nvFARRAM     000000
__Lnvbit                    nvbit        000000
__Lnvrram                   nvrram       000000
__Lparam                    rparam       000000
__Lpowerup                  powerup      000000
__Lram                      ram          000000
__Lramtop                   ramtop       000500
__Lrbit                     rbit         000000
__Lrbss                     rbss         000000
__Lrdata                    rdata        000000
__Lreset_vec                reset_vec    000000
__Lrparam                   rparam       000000
__Lsfr                      sfr          000000
__Lsmallconst               smallconst   000000
__Lspace_0                  (abs)        000000
__Lspace_1                  (abs)        000000
__Lspace_2                  (abs)        000000
__Lstack                    stack        000000
__Lstruct                   struct       000000
__Ltemp                     temp         000000
__Ltext                     text         000000
__Ltext0                    text0        000000
__Ltext1                    text1        000000
__Ltext10                   text10       000000
__Ltext11                   text11       000000
__Ltext12                   text12       000000
__Ltext13                   text13       000000
__Ltext14                   text14       000000
__Ltext15                   text15       000000
__Ltext16                   text16       000000
__Ltext17                   text17       000000
__Ltext18                   text18       000000
__Ltext19                   text19       000000
__Ltext2                    text2        000000
__Ltext20                   text20       000000
__Ltext21                   text21       000000
__Ltext22                   text22       000000
__Ltext23                   text23       000000
__Ltext24                   text24       000000
__Ltext25                   text25       000000
__Ltext26                   text26       000000
__Ltext27                   text27       000000
__Ltext28                   text28       000000
__Ltext29                   text29       000000
__Ltext3                    text3        000000
__Ltext4                    text4        000000
__Ltext5                    text5        000000
__Ltext6                    text6        000000
__Ltext7                    text7        000000
__Ltext8                    text8        000000
__Ltext9                    text9        000000
__S0                        (abs)        30000E
__S1                        (abs)        0004DC
__S2                        (abs)        000000
___awdiv                    text18       001C1E
___awdiv@counter            cstackCOMRAM 000005
___awdiv@dividend           cstackCOMRAM 000001
___awdiv@divisor            cstackCOMRAM 000003
___awdiv@quotient           cstackCOMRAM 000007
___awdiv@sign               cstackCOMRAM 000006
___awmod                    text29       0019F0
___awmod@counter            cstackCOMRAM 000027
___awmod@dividend           cstackCOMRAM 000023
___awmod@divisor            cstackCOMRAM 000025
___awmod@sign               cstackCOMRAM 000028
___inthi_sp                 stack        000000
___intlo_sp                 stack        000000
___lwmod                    text28       0015C8
___lwmod@counter            cstackCOMRAM 000005
___lwmod@dividend           cstackCOMRAM 000001
___lwmod@divisor            cstackCOMRAM 000003
___omul                     text5        001952
___omul@multiplicand        cstackCOMRAM 000009
___omul@multiplier          cstackCOMRAM 000001
___omul@product             cstackCOMRAM 000011
___param_bank               (abs)        000000
___rparam_used              (abs)        000001
___sp                       stack        000000
___wmul                     text25       001306
___wmul@multiplicand        cstackCOMRAM 000003
___wmul@multiplier          cstackCOMRAM 000001
___wmul@product             cstackCOMRAM 000005
__accesstop                 (abs)        000060
__activetblptr              (abs)        000002
__end_of___awdiv            text18       001CE2
__end_of___awmod            text29       001AA0
__end_of___lwmod            text28       00162C
__end_of___omul             text5        0019F0
__end_of___wmul             text25       00132C
__end_of__initialization    cinit        001500
__end_of_affMenu            text9        00364A
__end_of_changePos          text27       0013BE
__end_of_checkCollision     text26       002070
__end_of_checkLine          text24       0018B4
__end_of_eraseLine          text23       001F80
__end_of_glcd_FillScreen    text21       001790
__end_of_glcd_Init          text20       001952
__end_of_glcd_PlotPixel     text16       001DB4
__end_of_glcd_ReadByte      text17       001432
__end_of_glcd_Rect          text15       001B5E
__end_of_glcd_SetCursor     text19       001694
__end_of_glcd_WriteByte     text22       0013F8
__end_of_glcd_draw_cube     text14       0015C8
__end_of_glcd_draw_shape    text13       001568
__end_of_glcd_print_tab     text12       001C1E
__end_of_initMyPIC18F       text11       00135C
__end_of_main               text0        004000
__end_of_makeForme          text10       002D12
__end_of_menu               text7        001710
__end_of_menuTetris         text8        00227E
__end_of_putPiece           text6        00181C
__end_of_rand               text4        001E92
__end_of_srand              text3        00138C
__end_of_time               text2        0014BA
__end_of_transformForm      text1        002774
__initialization            cinit        0014BA
__mediumconst               mediumconst  000000
__pbssBANK0                 bssBANK0     00009C
__pbssBANK1                 bssBANK1     0001DC
__pbssBANK4                 bssBANK4     000400
__pbssCOMRAM                bssCOMRAM    00005F
__pcinit                    cinit        0014BA
__pcstackBANK0              cstackBANK0  0000B5
__pcstackBANK1              cstackBANK1  000100
__pcstackCOMRAM             cstackCOMRAM 000001
__pdataBANK0                dataBANK0    000060
__pidataBANK0               idataBANK0   001432
__ptext0                    text0        00364A
__ptext1                    text1        00227E
__ptext10                   text10       002774
__ptext11                   text11       00132C
__ptext12                   text12       001B5E
__ptext13                   text13       00150A
__ptext14                   text14       001568
__ptext15                   text15       001AA0
__ptext16                   text16       001CE2
__ptext17                   text17       0013F8
__ptext18                   text18       001C1E
__ptext19                   text19       00162C
__ptext2                    text2        00146E
__ptext20                   text20       0018B4
__ptext21                   text21       001710
__ptext22                   text22       0013BE
__ptext23                   text23       001E92
__ptext24                   text24       00181C
__ptext25                   text25       001306
__ptext26                   text26       001F80
__ptext27                   text27       00138C
__ptext28                   text28       0015C8
__ptext29                   text29       0019F0
__ptext3                    text3        00135C
__ptext4                    text4        001DB4
__ptext5                    text5        001952
__ptext6                    text6        001790
__ptext7                    text7        001694
__ptext8                    text8        002070
__ptext9                    text9        002D12
__ramtop                    ramtop       000500
__size_of___awdiv           (abs)        000000
__size_of___awmod           (abs)        000000
__size_of___lwmod           (abs)        000000
__size_of___omul            (abs)        000000
__size_of___wmul            (abs)        000000
__size_of_affMenu           (abs)        000000
__size_of_changePos         (abs)        000000
__size_of_checkCollision    (abs)        000000
__size_of_checkLine         (abs)        000000
__size_of_eraseLine         (abs)        000000
__size_of_glcd_FillScreen   (abs)        000000
__size_of_glcd_Init         (abs)        000000
__size_of_glcd_PlotPixel    (abs)        000000
__size_of_glcd_ReadByte     (abs)        000000
__size_of_glcd_Rect         (abs)        000000
__size_of_glcd_SetCursor    (abs)        000000
__size_of_glcd_WriteByte    (abs)        000000
__size_of_glcd_draw_cube    (abs)        000000
__size_of_glcd_draw_shape   (abs)        000000
__size_of_glcd_print_tab    (abs)        000000
__size_of_initMyPIC18F      (abs)        000000
__size_of_main              (abs)        000000
__size_of_makeForme         (abs)        000000
__size_of_menu              (abs)        000000
__size_of_menuTetris        (abs)        000000
__size_of_putPiece          (abs)        000000
__size_of_rand              (abs)        000000
__size_of_srand             (abs)        000000
__size_of_time              (abs)        000000
__size_of_transformForm     (abs)        000000
__smallconst                smallconst   000000
_affMenu                    text9        002D12
_changePos                  text27       00138C
_checkCollision             text26       001F80
_checkLine                  text24       00181C
_eraseLine                  text23       001E92
_glcd_FillScreen            text21       001710
_glcd_Init                  text20       0018B4
_glcd_PlotPixel             text16       001CE2
_glcd_ReadByte              text17       0013F8
_glcd_Rect                  text15       001AA0
_glcd_SetCursor             text19       00162C
_glcd_WriteByte             text22       0013BE
_glcd_draw_cube             text14       001568
_glcd_draw_shape            text13       00150A
_glcd_print_tab             text12       001B5E
_initMyPIC18F               text11       00132C
_main                       text0        00364A
_makeForme                  text10       002774
_menu                       text7        001694
_menuTetris                 text8        002070
_partition                  dataBANK0    000060
_putPiece                   text6        001790
_rand                       text4        001DB4
_seed                       bssBANK0     0000AD
_srand                      text3        00135C
_time                       text2        00146E
_transformForm              text1        00227E
_x                          bssCOMRAM    00005F
_y                          bssBANK0     0000AC
changePos@position          cstackCOMRAM 000001
checkCollision@forme        cstackCOMRAM 000003
checkCollision@i            cstackCOMRAM 000010
checkCollision@result       cstackCOMRAM 00000E
checkCollision@tab          cstackCOMRAM 000001
checkLine@i                 cstackCOMRAM 000010
checkLine@line              cstackCOMRAM 000009
checkLine@nbTrue            cstackCOMRAM 00000E
checkLine@tab               cstackCOMRAM 000007
end_of_initialization       cinit        001500
eraseLine@i                 cstackCOMRAM 000013
eraseLine@j                 cstackCOMRAM 000015
eraseLine@j_317             cstackCOMRAM 000011
eraseLine@line              cstackCOMRAM 000009
eraseLine@points            cstackCOMRAM 00000B
eraseLine@tab               cstackCOMRAM 000007
glcd_FillScreen@color       cstackCOMRAM 00000B
glcd_FillScreen@i           cstackCOMRAM 00000D
glcd_FillScreen@j           cstackCOMRAM 00000C
glcd_Init@mode              cstackCOMRAM 00000E
glcd_PlotPixel@color        cstackCOMRAM 00000C
glcd_PlotPixel@data         cstackCOMRAM 000010
glcd_PlotPixel@side         cstackCOMRAM 000011
glcd_PlotPixel@xpos         cstackCOMRAM 00000F
glcd_PlotPixel@ypos         cstackCOMRAM 00000B
glcd_ReadByte@data          cstackCOMRAM 000002
glcd_ReadByte@side          cstackCOMRAM 000001
glcd_Rect@color             cstackCOMRAM 000015
glcd_Rect@i                 cstackCOMRAM 000017
glcd_Rect@j                 cstackCOMRAM 000018
glcd_Rect@xe                cstackCOMRAM 000013
glcd_Rect@xs                cstackCOMRAM 000016
glcd_Rect@ye                cstackCOMRAM 000014
glcd_Rect@ys                cstackCOMRAM 000012
glcd_SetCursor@side         cstackCOMRAM 00000C
glcd_SetCursor@xpos         cstackCOMRAM 00000D
glcd_SetCursor@ypos         cstackCOMRAM 00000B
glcd_WriteByte@data         cstackCOMRAM 000009
glcd_WriteByte@side         cstackCOMRAM 00000A
glcd_draw_cube@color        cstackCOMRAM 00001A
glcd_draw_cube@x            cstackCOMRAM 000019
glcd_draw_cube@y            cstackCOMRAM 00001B
glcd_draw_shape@color       cstackCOMRAM 00001E
glcd_draw_shape@forme       cstackCOMRAM 00001C
glcd_draw_shape@j           cstackCOMRAM 000023
glcd_print_tab@i            cstackCOMRAM 000021
glcd_print_tab@j            cstackCOMRAM 000022
glcd_print_tab@tabAffichage cstackCOMRAM 00001C
intlevel0                   text         000000
intlevel1                   text         000000
intlevel2                   text         000000
intlevel3                   text         000000
main@delay                  cstackCOMRAM 000051
main@forme                  cstackCOMRAM 000049
main@formeEnCours           cstackCOMRAM 00005D
main@i                      cstackCOMRAM 000053
main@i_274                  cstackCOMRAM 000057
main@i_276                  cstackCOMRAM 00005B
main@i_277                  cstackBANK0  0000B5
main@j                      cstackCOMRAM 000055
main@j_275                  cstackCOMRAM 000059
main@j_278                  cstackBANK0  0000B7
main@line                   cstackBANK0  0000B9
main@points                 cstackBANK0  0000BF
main@position               cstackBANK0  0000BB
main@prevForme              cstackCOMRAM 00003F
main@tab                    cstackBANK1  000100
main@typeForme              cstackBANK0  0000BD
main@verif                  cstackCOMRAM 000047
main@x                      cstackBANK0  0000C1
main@y                      cstackBANK0  0000C3
makeForme@forme             cstackCOMRAM 000001
makeForme@i                 cstackCOMRAM 000003
makeForme@i_324             cstackCOMRAM 000009
makeForme@i_326             cstackCOMRAM 00000D
makeForme@i_327             cstackCOMRAM 00000F
makeForme@i_329             cstackCOMRAM 000015
makeForme@i_331             cstackCOMRAM 000019
makeForme@i_333             cstackCOMRAM 00001D
makeForme@i_335             cstackCOMRAM 000021
makeForme@i_337             cstackCOMRAM 000025
makeForme@i_339             cstackCOMRAM 000013
makeForme@j                 cstackCOMRAM 00000B
makeForme@j_328             cstackCOMRAM 000011
makeForme@j_330             cstackCOMRAM 000017
makeForme@j_332             cstackCOMRAM 00001B
makeForme@j_334             cstackCOMRAM 00001F
makeForme@j_336             cstackCOMRAM 000023
makeForme@j_338             cstackCOMRAM 000027
menu@fin                    cstackCOMRAM 00001E
putPiece@forme              cstackCOMRAM 000003
putPiece@i                  cstackCOMRAM 00000F
putPiece@points             cstackCOMRAM 000005
putPiece@tab                cstackCOMRAM 000001
srand@s                     cstackCOMRAM 000009
stackhi                     (abs)        0000FF
stacklo                     (abs)        0000C5
start                       init         000000
start_initialization        cinit        0014BA
time@t                      cstackCOMRAM 000001
transformForm@a             cstackCOMRAM 000035
transformForm@forme         cstackCOMRAM 000001
transformForm@i             cstackCOMRAM 000021
transformForm@i_353         cstackCOMRAM 000025
transformForm@i_355         cstackCOMRAM 000029
transformForm@i_357         cstackCOMRAM 00002D
transformForm@i_359         cstackCOMRAM 000031
transformForm@j             cstackCOMRAM 000023
transformForm@j_354         cstackCOMRAM 000027
transformForm@j_356         cstackCOMRAM 00002B
transformForm@j_358         cstackCOMRAM 00002F
transformForm@j_360         cstackCOMRAM 000033
transformForm@newForme      cstackCOMRAM 000011
transformForm@position      cstackCOMRAM 000007
transformForm@x             cstackCOMRAM 000003
transformForm@y             cstackCOMRAM 000005


FUNCTION INFORMATION:

 *************** function _main *****************
 Defined at:
		line 24 in file "newmain.c"
 Parameters:    Size  Location     Type
		None
 Auto vars:     Size  Location     Type
  j               2    2[BANK0 ] unsigned short 
  j               2   88[COMRAM] unsigned short 
  j               2   84[COMRAM] unsigned short 
  i               2    0[BANK0 ] unsigned short 
  i               2   90[COMRAM] unsigned short 
  i               2   86[COMRAM] unsigned short 
  i               2   82[COMRAM] unsigned short 
  line            2    4[BANK0 ] unsigned short 
  tab           220    0[BANK1 ] unsigned char [10][22]
  forme           8   72[COMRAM] unsigned char [2][4]
  prevForme       8   62[COMRAM] unsigned char [2][4]
  y               2   14[BANK0 ] unsigned short 
  x               2   12[BANK0 ] unsigned short 
  points          2   10[BANK0 ] unsigned short 
  typeForme       2    8[BANK0 ] unsigned short 
  position        2    6[BANK0 ] unsigned short 
  formeEnCours    2   92[COMRAM] unsigned short 
  delay           2   80[COMRAM] unsigned short 
  verif           2   70[COMRAM] unsigned short 
 Return value:  Size  Location     Type
                  1    wreg      void 
 Registers used:
		wreg, fsr1l, fsr1h, fsr2l, fsr2h, status,2, status,0, prodl, prodh, cstack
 Tracked objects:
		On entry : 
		On exit  : 
		Unchanged: 
 Data sizes:     COMRAM   BANK0   BANK1   BANK4
      Params:         0       0       0       0
      Locals:        32      16     220       0
      Temps:          8       0       0       0
      Totals:        40      16     220       0
Total ram usage:      276 bytes
 Hardware stack levels required when called:    6
 This function calls:
		___awmod
		___lwmod
		___wmul
		_changePos
		_checkCollision
		_checkLine
		_eraseLine
		_glcd_Init
		_glcd_SetCursor
		_glcd_draw_shape
		_glcd_print_tab
		_initMyPIC18F
		_makeForme
		_menu
		_putPiece
		_rand
		_srand
		_time
		_transformForm
 This function is called by:
		Startup code after reset
 This function uses a non-reentrant model


 *************** function _transformForm *****************
 Defined at:
		line 72 in file "../V3.X/formes.c"
 Parameters:    Size  Location     Type
  forme           2    0[COMRAM] PTR unsigned char [2]
		 -> main@forme(8), 
  x               2    2[COMRAM] unsigned short 
  y               2    4[COMRAM] unsigned short 
  position        2    6[COMRAM] unsigned short 
 Auto vars:     Size  Location     Type
  j               2   46[COMRAM] unsigned short 
  j               2   42[COMRAM] unsigned short 
  j               2   38[COMRAM] unsigned short 
  j               2   34[COMRAM] unsigned short 
  j               2   50[COMRAM] unsigned short 
  i               2   44[COMRAM] unsigned short 
  i               2   40[COMRAM] unsigned short 
  i               2   36[COMRAM] unsigned short 
  i               2   32[COMRAM] unsigned short 
  i               2   48[COMRAM] unsigned short 
  newForme       16   16[COMRAM] unsigned short [2][4]
  a               2   52[COMRAM] unsigned short 
 Return value:  Size  Location     Type
                  1    wreg      void 
 Registers used:
		wreg, fsr1l, fsr1h, fsr2l, fsr2h, status,2, status,0
 Tracked objects:
		On entry : 
		On exit  : 
		Unchanged: 
 Data sizes:     COMRAM   BANK0   BANK1   BANK4
      Params:         8       0       0       0
      Locals:        38       0       0       0
      Temps:          8       0       0       0
      Totals:        54       0       0       0
Total ram usage:       54 bytes
 Hardware stack levels used:    1
 This function calls:
		Nothing
 This function is called by:
		_main
 This function uses a non-reentrant model


 *************** function _time *****************
 Defined at:
		line 6 in file "C:\Program Files (x86)\Microchip\xc8\v2.10\pic\sources\c99\common\time.c"
 Parameters:    Size  Location     Type
  t               2    0[COMRAM] PTR long long 
		 -> NULL(0), 
 Auto vars:     Size  Location     Type
		None
 Return value:  Size  Location     Type
                  8    0[COMRAM] long long 
 Registers used:
		wreg, fsr2l, fsr2h, status,2, status,0
 Tracked objects:
		On entry : 
		On exit  : 
		Unchanged: 
 Data sizes:     COMRAM   BANK0   BANK1   BANK4
      Params:         8       0       0       0
      Locals:         0       0       0       0
      Temps:          0       0       0       0
      Totals:         8       0       0       0
Total ram usage:        8 bytes
 Hardware stack levels used:    1
 This function calls:
		Nothing
 This function is called by:
		_main
 This function uses a non-reentrant model


 *************** function _srand *****************
 Defined at:
		line 10 in file "C:\Program Files (x86)\Microchip\xc8\v2.10\pic\sources\c99\common\rand.c"
 Parameters:    Size  Location     Type
  s               2    8[COMRAM] unsigned int 
 Auto vars:     Size  Location     Type
		None
 Return value:  Size  Location     Type
                  1    wreg      void 
 Registers used:
		wreg, status,2, status,0
 Tracked objects:
		On entry : 
		On exit  : 
		Unchanged: 
 Data sizes:     COMRAM   BANK0   BANK1   BANK4
      Params:         2       0       0       0
      Locals:         0       0       0       0
      Temps:          4       0       0       0
      Totals:         6       0       0       0
Total ram usage:        6 bytes
 Hardware stack levels used:    1
 This function calls:
		Nothing
 This function is called by:
		_main
 This function uses a non-reentrant model


 *************** function _rand *****************
 Defined at:
		line 15 in file "C:\Program Files (x86)\Microchip\xc8\v2.10\pic\sources\c99\common\rand.c"
 Parameters:    Size  Location     Type
		None
 Auto vars:     Size  Location     Type
		None
 Return value:  Size  Location     Type
                  2   24[COMRAM] int 
 Registers used:
		wreg, fsr2l, fsr2h, status,2, status,0, cstack
 Tracked objects:
		On entry : 
		On exit  : 
		Unchanged: 
 Data sizes:     COMRAM   BANK0   BANK1   BANK4
      Params:         2       0       0       0
      Locals:         0       0       0       0
      Temps:          8       0       0       0
      Totals:        10       0       0       0
Total ram usage:       10 bytes
 Hardware stack levels used:    1
 Hardware stack levels required when called:    1
 This function calls:
		___omul
 This function is called by:
		_main
 This function uses a non-reentrant model


 *************** function ___omul *****************
 Defined at:
		line 91 in file "C:\Program Files (x86)\Microchip\xc8\v2.10\pic\sources\c99\common\Umul64.c"
 Parameters:    Size  Location     Type
  multiplier      8    0[COMRAM] unsigned long long 
  multiplicand    8    8[COMRAM] unsigned long long 
 Auto vars:     Size  Location     Type
  product         8   16[COMRAM] unsigned long long 
 Return value:  Size  Location     Type
                  8    0[COMRAM] unsigned long long 
 Registers used:
		wreg, fsr2l, fsr2h, status,2, status,0
 Tracked objects:
		On entry : 
		On exit  : 
		Unchanged: 
 Data sizes:     COMRAM   BANK0   BANK1   BANK4
      Params:        16       0       0       0
      Locals:         8       0       0       0
      Temps:          0       0       0       0
      Totals:        24       0       0       0
Total ram usage:       24 bytes
 Hardware stack levels used:    1
 This function calls:
		Nothing
 This function is called by:
		_rand
 This function uses a non-reentrant model


 *************** function _putPiece *****************
 Defined at:
		line 14 in file "../V3.X/collisions.c"
 Parameters:    Size  Location     Type
  tab             2    0[COMRAM] PTR unsigned char [10]
		 -> main@tab(220), 
  forme           2    2[COMRAM] PTR unsigned char [2]
		 -> main@forme(8), 
  points          2    4[COMRAM] unsigned short 
 Auto vars:     Size  Location     Type
  i               2   14[COMRAM] unsigned short 
 Return value:  Size  Location     Type
                  1    wreg      void 
 Registers used:
		wreg, fsr2l, fsr2h, status,2, status,0, prodl, prodh
 Tracked objects:
		On entry : 
		On exit  : 
		Unchanged: 
 Data sizes:     COMRAM   BANK0   BANK1   BANK4
      Params:         6       0       0       0
      Locals:         2       0       0       0
      Temps:          8       0       0       0
      Totals:        16       0       0       0
Total ram usage:       16 bytes
 Hardware stack levels used:    1
 This function calls:
		Nothing
 This function is called by:
		_main
 This function uses a non-reentrant model


 *************** function _menu *****************
 Defined at:
		line 135 in file "newmain.c"
 Parameters:    Size  Location     Type
		None
 Auto vars:     Size  Location     Type
  fin             2   29[COMRAM] int 
 Return value:  Size  Location     Type
                  1    wreg      void 
 Registers used:
		wreg, status,2, status,0, prodl, prodh, cstack
 Tracked objects:
		On entry : 
		On exit  : 
		Unchanged: 
 Data sizes:     COMRAM   BANK0   BANK1   BANK4
      Params:         0       0       0       0
      Locals:         2       0       0       0
      Temps:          2       0       0       0
      Totals:         4       0       0       0
Total ram usage:        4 bytes
 Hardware stack levels used:    1
 Hardware stack levels required when called:    5
 This function calls:
		_affMenu
		_glcd_FillScreen
		_menuTetris
 This function is called by:
		_main
 This function uses a non-reentrant model


 *************** function _menuTetris *****************
 Defined at:
		line 358 in file "newmain.c"
 Parameters:    Size  Location     Type
		None
 Auto vars:     Size  Location     Type
		None
 Return value:  Size  Location     Type
                  1    wreg      void 
 Registers used:
		wreg, status,2, status,0, prodl, prodh, cstack
 Tracked objects:
		On entry : 
		On exit  : 
		Unchanged: 
 Data sizes:     COMRAM   BANK0   BANK1   BANK4
      Params:         0       0       0       0
      Locals:         0       0       0       0
      Temps:          0       0       0       0
      Totals:         0       0       0       0
Total ram usage:        0 bytes
 Hardware stack levels used:    1
 Hardware stack levels required when called:    4
 This function calls:
		_glcd_FillScreen
		_glcd_draw_cube
 This function is called by:
		_menu
 This function uses a non-reentrant model


 *************** function _affMenu *****************
 Defined at:
		line 160 in file "newmain.c"
 Parameters:    Size  Location     Type
		None
 Auto vars:     Size  Location     Type
		None
 Return value:  Size  Location     Type
                  1    wreg      void 
 Registers used:
		wreg, status,2, status,0, prodl, prodh, cstack
 Tracked objects:
		On entry : 
		On exit  : 
		Unchanged: 
 Data sizes:     COMRAM   BANK0   BANK1   BANK4
      Params:         0       0       0       0
      Locals:         0       0       0       0
      Temps:          0       0       0       0
      Totals:         0       0       0       0
Total ram usage:        0 bytes
 Hardware stack levels used:    1
 Hardware stack levels required when called:    2
 This function calls:
		_glcd_FillScreen
		_glcd_PlotPixel
 This function is called by:
		_menu
 This function uses a non-reentrant model


 *************** function _makeForme *****************
 Defined at:
		line 3 in file "../V3.X/formes.c"
 Parameters:    Size  Location     Type
  forme           2    0[COMRAM] PTR unsigned char [2]
		 -> main@forme(8), 
  i               2    2[COMRAM] unsigned short 
 Auto vars:     Size  Location     Type
  j               2   38[COMRAM] unsigned short 
  j               2   34[COMRAM] unsigned short 
  j               2   30[COMRAM] unsigned short 
  j               2   26[COMRAM] unsigned short 
  j               2   22[COMRAM] unsigned short 
  j               2   16[COMRAM] unsigned short 
  j               2   10[COMRAM] unsigned short 
  i               2   18[COMRAM] unsigned short 
  i               2   36[COMRAM] unsigned short 
  i               2   32[COMRAM] unsigned short 
  i               2   28[COMRAM] unsigned short 
  i               2   24[COMRAM] unsigned short 
  i               2   20[COMRAM] unsigned short 
  i               2   14[COMRAM] unsigned short 
  i               2   12[COMRAM] unsigned short 
  i               2    8[COMRAM] unsigned short 
 Return value:  Size  Location     Type
                  1    wreg      void 
 Registers used:
		wreg, fsr2l, fsr2h, status,2, status,0
 Tracked objects:
		On entry : 
		On exit  : 
		Unchanged: 
 Data sizes:     COMRAM   BANK0   BANK1   BANK4
      Params:         4       0       0       0
      Locals:        32       0       0       0
      Temps:          4       0       0       0
      Totals:        40       0       0       0
Total ram usage:       40 bytes
 Hardware stack levels used:    1
 This function calls:
		Nothing
 This function is called by:
		_main
 This function uses a non-reentrant model


 *************** function _initMyPIC18F *****************
 Defined at:
		line 4 in file "../V3.X/init.c"
 Parameters:    Size  Location     Type
		None
 Auto vars:     Size  Location     Type
		None
 Return value:  Size  Location     Type
                  1    wreg      void 
 Registers used:
		wreg, status,2
 Tracked objects:
		On entry : 
		On exit  : 
		Unchanged: 
 Data sizes:     COMRAM   BANK0   BANK1   BANK4
      Params:         0       0       0       0
      Locals:         0       0       0       0
      Temps:          0       0       0       0
      Totals:         0       0       0       0
Total ram usage:        0 bytes
 Hardware stack levels used:    1
 This function calls:
		Nothing
 This function is called by:
		_main
 This function uses a non-reentrant model


 *************** function _glcd_print_tab *****************
 Defined at:
		line 230 in file "../V3.X/glcd.c"
 Parameters:    Size  Location     Type
  tabAffichage    2   27[COMRAM] PTR unsigned char [10]
		 -> main@tab(220), 
 Auto vars:     Size  Location     Type
  j               1   33[COMRAM] unsigned char 
  i               1   32[COMRAM] unsigned char 
 Return value:  Size  Location     Type
                  1    wreg      void 
 Registers used:
		wreg, fsr2l, fsr2h, status,2, status,0, prodl, prodh, cstack
 Tracked objects:
		On entry : 
		On exit  : 
		Unchanged: 
 Data sizes:     COMRAM   BANK0   BANK1   BANK4
      Params:         2       0       0       0
      Locals:         2       0       0       0
      Temps:          3       0       0       0
      Totals:         7       0       0       0
Total ram usage:        7 bytes
 Hardware stack levels used:    1
 Hardware stack levels required when called:    4
 This function calls:
		_glcd_Rect
		_glcd_draw_cube
 This function is called by:
		_main
 This function uses a non-reentrant model


 *************** function _glcd_draw_shape *****************
 Defined at:
		line 260 in file "../V3.X/glcd.c"
 Parameters:    Size  Location     Type
  forme           2   27[COMRAM] PTR unsigned char [2]
		 -> main@prevForme(8), main@forme(8), 
  color           1   29[COMRAM] unsigned char 
 Auto vars:     Size  Location     Type
  j               1   34[COMRAM] unsigned char 
 Return value:  Size  Location     Type
                  1    wreg      void 
 Registers used:
		wreg, fsr2l, fsr2h, status,2, status,0, prodl, prodh, cstack
 Tracked objects:
		On entry : 
		On exit  : 
		Unchanged: 
 Data sizes:     COMRAM   BANK0   BANK1   BANK4
      Params:         3       0       0       0
      Locals:         1       0       0       0
      Temps:          4       0       0       0
      Totals:         8       0       0       0
Total ram usage:        8 bytes
 Hardware stack levels used:    1
 Hardware stack levels required when called:    4
 This function calls:
		_glcd_draw_cube
 This function is called by:
		_main
 This function uses a non-reentrant model


 *************** function _glcd_draw_cube *****************
 Defined at:
		line 252 in file "../V3.X/glcd.c"
 Parameters:    Size  Location     Type
  y               1    wreg     unsigned char 
  x               1   24[COMRAM] unsigned char 
  color           1   25[COMRAM] unsigned char 
 Auto vars:     Size  Location     Type
  y               1   26[COMRAM] unsigned char 
 Return value:  Size  Location     Type
                  1    wreg      void 
 Registers used:
		wreg, status,2, status,0, prodl, prodh, cstack
 Tracked objects:
		On entry : 
		On exit  : 
		Unchanged: 
 Data sizes:     COMRAM   BANK0   BANK1   BANK4
      Params:         2       0       0       0
      Locals:         1       0       0       0
      Temps:          0       0       0       0
      Totals:         3       0       0       0
Total ram usage:        3 bytes
 Hardware stack levels used:    1
 Hardware stack levels required when called:    3
 This function calls:
		_glcd_Rect
 This function is called by:
		_menuTetris
		_glcd_print_tab
		_glcd_draw_shape
 This function uses a non-reentrant model


 *************** function _glcd_Rect *****************
 Defined at:
		line 213 in file "../V3.X/glcd.c"
 Parameters:    Size  Location     Type
  xs              1    wreg     unsigned char 
  ys              1   17[COMRAM] unsigned char 
  xe              1   18[COMRAM] unsigned char 
  ye              1   19[COMRAM] unsigned char 
  color           1   20[COMRAM] unsigned char 
 Auto vars:     Size  Location     Type
  xs              1   21[COMRAM] unsigned char 
  j               1   23[COMRAM] unsigned char 
  i               1   22[COMRAM] unsigned char 
 Return value:  Size  Location     Type
                  1    wreg      void 
 Registers used:
		wreg, status,2, status,0, cstack
 Tracked objects:
		On entry : 
		On exit  : 
		Unchanged: 
 Data sizes:     COMRAM   BANK0   BANK1   BANK4
      Params:         4       0       0       0
      Locals:         3       0       0       0
      Temps:          0       0       0       0
      Totals:         7       0       0       0
Total ram usage:        7 bytes
 Hardware stack levels used:    1
 Hardware stack levels required when called:    2
 This function calls:
		_glcd_PlotPixel
 This function is called by:
		_glcd_print_tab
		_glcd_draw_cube
 This function uses a non-reentrant model


 *************** function _glcd_PlotPixel *****************
 Defined at:
		line 148 in file "../V3.X/glcd.c"
 Parameters:    Size  Location     Type
  xpos            1    wreg     unsigned char 
  ypos            1   10[COMRAM] unsigned char 
  color           1   11[COMRAM] unsigned char 
 Auto vars:     Size  Location     Type
  xpos            1   14[COMRAM] unsigned char 
  side            1   16[COMRAM] unsigned char 
  data            1   15[COMRAM] unsigned char 
 Return value:  Size  Location     Type
                  1    wreg      void 
 Registers used:
		wreg, status,2, status,0, cstack
 Tracked objects:
		On entry : 
		On exit  : 
		Unchanged: 
 Data sizes:     COMRAM   BANK0   BANK1   BANK4
      Params:         2       0       0       0
      Locals:         3       0       0       0
      Temps:          2       0       0       0
      Totals:         7       0       0       0
Total ram usage:        7 bytes
 Hardware stack levels used:    1
 Hardware stack levels required when called:    1
 This function calls:
		___awdiv
		_glcd_ReadByte
		_glcd_WriteByte
 This function is called by:
		_affMenu
		_glcd_Rect
 This function uses a non-reentrant model


 *************** function _glcd_ReadByte *****************
 Defined at:
		line 112 in file "../V3.X/glcd.c"
 Parameters:    Size  Location     Type
  side            1    wreg     unsigned char 
 Auto vars:     Size  Location     Type
  side            1    0[COMRAM] unsigned char 
  data            1    1[COMRAM] unsigned char 
 Return value:  Size  Location     Type
                  1    wreg      unsigned char 
 Registers used:
		wreg, status,2
 Tracked objects:
		On entry : 
		On exit  : 
		Unchanged: 
 Data sizes:     COMRAM   BANK0   BANK1   BANK4
      Params:         0       0       0       0
      Locals:         2       0       0       0
      Temps:          0       0       0       0
      Totals:         2       0       0       0
Total ram usage:        2 bytes
 Hardware stack levels used:    1
 This function calls:
		Nothing
 This function is called by:
		_glcd_PlotPixel
 This function uses a non-reentrant model


 *************** function ___awdiv *****************
 Defined at:
		line 7 in file "C:\Program Files (x86)\Microchip\xc8\v2.10\pic\sources\c99\common\awdiv.c"
 Parameters:    Size  Location     Type
  dividend        2    0[COMRAM] int 
  divisor         2    2[COMRAM] int 
 Auto vars:     Size  Location     Type
  quotient        2    6[COMRAM] int 
  sign            1    5[COMRAM] unsigned char 
  counter         1    4[COMRAM] unsigned char 
 Return value:  Size  Location     Type
                  2    0[COMRAM] int 
 Registers used:
		wreg, status,2, status,0
 Tracked objects:
		On entry : 
		On exit  : 
		Unchanged: 
 Data sizes:     COMRAM   BANK0   BANK1   BANK4
      Params:         4       0       0       0
      Locals:         4       0       0       0
      Temps:          0       0       0       0
      Totals:         8       0       0       0
Total ram usage:        8 bytes
 Hardware stack levels used:    1
 This function calls:
		Nothing
 This function is called by:
		_glcd_PlotPixel
		_musique
 This function uses a non-reentrant model


 *************** function _glcd_SetCursor *****************
 Defined at:
		line 187 in file "../V3.X/glcd.c"
 Parameters:    Size  Location     Type
  xpos            1    wreg     unsigned char 
  ypos            1   10[COMRAM] unsigned char 
 Auto vars:     Size  Location     Type
  xpos            1   12[COMRAM] unsigned char 
  side            1   11[COMRAM] unsigned char 
 Return value:  Size  Location     Type
                  1    wreg      void 
 Registers used:
		wreg, status,2, status,0, cstack
 Tracked objects:
		On entry : 
		On exit  : 
		Unchanged: 
 Data sizes:     COMRAM   BANK0   BANK1   BANK4
      Params:         1       0       0       0
      Locals:         2       0       0       0
      Temps:          0       0       0       0
      Totals:         3       0       0       0
Total ram usage:        3 bytes
 Hardware stack levels used:    1
 Hardware stack levels required when called:    1
 This function calls:
		_glcd_WriteByte
 This function is called by:
		_main
 This function uses a non-reentrant model


 *************** function _glcd_Init *****************
 Defined at:
		line 13 in file "../V3.X/glcd.c"
 Parameters:    Size  Location     Type
  mode            1    wreg     unsigned char 
 Auto vars:     Size  Location     Type
  mode            1   13[COMRAM] unsigned char 
 Return value:  Size  Location     Type
                  1    wreg      void 
 Registers used:
		wreg, status,2, status,0, prodl, prodh, cstack
 Tracked objects:
		On entry : 
		On exit  : 
		Unchanged: 
 Data sizes:     COMRAM   BANK0   BANK1   BANK4
      Params:         0       0       0       0
      Locals:         1       0       0       0
      Temps:          0       0       0       0
      Totals:         1       0       0       0
Total ram usage:        1 bytes
 Hardware stack levels used:    1
 Hardware stack levels required when called:    2
 This function calls:
		_glcd_FillScreen
		_glcd_WriteByte
 This function is called by:
		_main
 This function uses a non-reentrant model


 *************** function _glcd_FillScreen *****************
 Defined at:
		line 87 in file "../V3.X/glcd.c"
 Parameters:    Size  Location     Type
  color           1    wreg     unsigned char 
 Auto vars:     Size  Location     Type
  color           1   10[COMRAM] unsigned char 
  i               1   12[COMRAM] unsigned char 
  j               1   11[COMRAM] unsigned char 
 Return value:  Size  Location     Type
                  1    wreg      void 
 Registers used:
		wreg, status,2, status,0, prodl, prodh, cstack
 Tracked objects:
		On entry : 
		On exit  : 
		Unchanged: 
 Data sizes:     COMRAM   BANK0   BANK1   BANK4
      Params:         0       0       0       0
      Locals:         3       0       0       0
      Temps:          0       0       0       0
      Totals:         3       0       0       0
Total ram usage:        3 bytes
 Hardware stack levels used:    1
 Hardware stack levels required when called:    1
 This function calls:
		_glcd_WriteByte
 This function is called by:
		_menu
		_affMenu
		_menuTetris
		_glcd_Init
 This function uses a non-reentrant model


 *************** function _glcd_WriteByte *****************
 Defined at:
		line 53 in file "../V3.X/glcd.c"
 Parameters:    Size  Location     Type
  side            1    wreg     unsigned char 
  data            1    8[COMRAM] unsigned char 
 Auto vars:     Size  Location     Type
  side            1    9[COMRAM] unsigned char 
 Return value:  Size  Location     Type
                  1    wreg      void 
 Registers used:
		wreg, status,2
 Tracked objects:
		On entry : 
		On exit  : 
		Unchanged: 
 Data sizes:     COMRAM   BANK0   BANK1   BANK4
      Params:         1       0       0       0
      Locals:         1       0       0       0
      Temps:          0       0       0       0
      Totals:         2       0       0       0
Total ram usage:        2 bytes
 Hardware stack levels used:    1
 This function calls:
		Nothing
 This function is called by:
		_glcd_Init
		_glcd_FillScreen
		_glcd_PlotPixel
		_glcd_SetCursor
 This function uses a non-reentrant model


 *************** function _eraseLine *****************
 Defined at:
		line 32 in file "../V3.X/collisions.c"
 Parameters:    Size  Location     Type
  tab             2    6[COMRAM] PTR unsigned char [10]
		 -> main@tab(220), 
  line            2    8[COMRAM] unsigned short 
  points          2   10[COMRAM] unsigned short 
 Auto vars:     Size  Location     Type
  j               2   20[COMRAM] unsigned short 
  j               2   16[COMRAM] unsigned short 
  i               2   18[COMRAM] unsigned short 
 Return value:  Size  Location     Type
                  1    wreg      void 
 Registers used:
		wreg, fsr1l, fsr1h, fsr2l, fsr2h, status,2, status,0, prodl, prodh, cstack
 Tracked objects:
		On entry : 
		On exit  : 
		Unchanged: 
 Data sizes:     COMRAM   BANK0   BANK1   BANK4
      Params:         6       0       0       0
      Locals:         6       0       0       0
      Temps:          4       0       0       0
      Totals:        16       0       0       0
Total ram usage:       16 bytes
 Hardware stack levels used:    1
 Hardware stack levels required when called:    1
 This function calls:
		___wmul
 This function is called by:
		_main
 This function uses a non-reentrant model


 *************** function _checkLine *****************
 Defined at:
		line 20 in file "../V3.X/collisions.c"
 Parameters:    Size  Location     Type
  tab             2    6[COMRAM] PTR unsigned char [10]
		 -> main@tab(220), 
  line            2    8[COMRAM] unsigned short 
 Auto vars:     Size  Location     Type
  i               2   15[COMRAM] unsigned short 
  nbTrue          2   13[COMRAM] unsigned short 
 Return value:  Size  Location     Type
                  2    6[COMRAM] unsigned short 
 Registers used:
		wreg, fsr2l, fsr2h, status,2, status,0, prodl, prodh, cstack
 Tracked objects:
		On entry : 
		On exit  : 
		Unchanged: 
 Data sizes:     COMRAM   BANK0   BANK1   BANK4
      Params:         4       0       0       0
      Locals:         4       0       0       0
      Temps:          3       0       0       0
      Totals:        11       0       0       0
Total ram usage:       11 bytes
 Hardware stack levels used:    1
 Hardware stack levels required when called:    1
 This function calls:
		___wmul
 This function is called by:
		_main
 This function uses a non-reentrant model


 *************** function ___wmul *****************
 Defined at:
		line 15 in file "C:\Program Files (x86)\Microchip\xc8\v2.10\pic\sources\c99\common\Umul16.c"
 Parameters:    Size  Location     Type
  multiplier      2    0[COMRAM] unsigned int 
  multiplicand    2    2[COMRAM] unsigned int 
 Auto vars:     Size  Location     Type
  product         2    4[COMRAM] unsigned int 
 Return value:  Size  Location     Type
                  2    0[COMRAM] unsigned int 
 Registers used:
		wreg, status,2, status,0, prodl, prodh
 Tracked objects:
		On entry : 
		On exit  : 
		Unchanged: 
 Data sizes:     COMRAM   BANK0   BANK1   BANK4
      Params:         4       0       0       0
      Locals:         2       0       0       0
      Temps:          0       0       0       0
      Totals:         6       0       0       0
Total ram usage:        6 bytes
 Hardware stack levels used:    1
 This function calls:
		Nothing
 This function is called by:
		_main
		_checkLine
		_eraseLine
 This function uses a non-reentrant model


 *************** function _checkCollision *****************
 Defined at:
		line 3 in file "../V3.X/collisions.c"
 Parameters:    Size  Location     Type
  tab             2    0[COMRAM] PTR unsigned char [10]
		 -> main@tab(220), 
  forme           2    2[COMRAM] PTR unsigned char [2]
		 -> main@forme(8), 
 Auto vars:     Size  Location     Type
  i               2   15[COMRAM] unsigned short 
  result          2   13[COMRAM] unsigned short 
 Return value:  Size  Location     Type
                  2    0[COMRAM] unsigned short 
 Registers used:
		wreg, fsr2l, fsr2h, status,2, status,0, prodl, prodh
 Tracked objects:
		On entry : 
		On exit  : 
		Unchanged: 
 Data sizes:     COMRAM   BANK0   BANK1   BANK4
      Params:         4       0       0       0
      Locals:         4       0       0       0
      Temps:          9       0       0       0
      Totals:        17       0       0       0
Total ram usage:       17 bytes
 Hardware stack levels used:    1
 This function calls:
		Nothing
 This function is called by:
		_main
 This function uses a non-reentrant model


 *************** function _changePos *****************
 Defined at:
		line 126 in file "../V3.X/formes.c"
 Parameters:    Size  Location     Type
  position        2    0[COMRAM] PTR unsigned short 
		 -> main@position(2), 
 Auto vars:     Size  Location     Type
		None
 Return value:  Size  Location     Type
                  1    wreg      void 
 Registers used:
		wreg, fsr2l, fsr2h, status,2, status,0
 Tracked objects:
		On entry : 
		On exit  : 
		Unchanged: 
 Data sizes:     COMRAM   BANK0   BANK1   BANK4
      Params:         2       0       0       0
      Locals:         0       0       0       0
      Temps:          2       0       0       0
      Totals:         4       0       0       0
Total ram usage:        4 bytes
 Hardware stack levels used:    1
 This function calls:
		Nothing
 This function is called by:
		_main
 This function uses a non-reentrant model


 *************** function ___lwmod *****************
 Defined at:
		line 7 in file "C:\Program Files (x86)\Microchip\xc8\v2.10\pic\sources\c99\common\lwmod.c"
 Parameters:    Size  Location     Type
  dividend        2    0[COMRAM] unsigned int 
  divisor         2    2[COMRAM] unsigned int 
 Auto vars:     Size  Location     Type
  counter         1    4[COMRAM] unsigned char 
 Return value:  Size  Location     Type
                  2    0[COMRAM] unsigned int 
 Registers used:
		wreg, status,2, status,0
 Tracked objects:
		On entry : 
		On exit  : 
		Unchanged: 
 Data sizes:     COMRAM   BANK0   BANK1   BANK4
      Params:         4       0       0       0
      Locals:         1       0       0       0
      Temps:          0       0       0       0
      Totals:         5       0       0       0
Total ram usage:        5 bytes
 Hardware stack levels used:    1
 This function calls:
		Nothing
 This function is called by:
		_main
 This function uses a non-reentrant model


 *************** function ___awmod *****************
 Defined at:
		line 7 in file "C:\Program Files (x86)\Microchip\xc8\v2.10\pic\sources\c99\common\awmod.c"
 Parameters:    Size  Location     Type
  dividend        2   34[COMRAM] int 
  divisor         2   36[COMRAM] int 
 Auto vars:     Size  Location     Type
  sign            1   39[COMRAM] unsigned char 
  counter         1   38[COMRAM] unsigned char 
 Return value:  Size  Location     Type
                  2   34[COMRAM] int 
 Registers used:
		wreg, status,2, status,0
 Tracked objects:
		On entry : 
		On exit  : 
		Unchanged: 
 Data sizes:     COMRAM   BANK0   BANK1   BANK4
      Params:         4       0       0       0
      Locals:         2       0       0       0
      Temps:          0       0       0       0
      Totals:         6       0       0       0
Total ram usage:        6 bytes
 Hardware stack levels used:    1
 This function calls:
		Nothing
 This function is called by:
		_main
 This function uses a non-reentrant model



MODULE INFORMATION

Module		Function		Class		Link	Load	Size
C:\Program Files (x86)\Microchip\xc8\v2.10\pic\sources\c99\common\rand.c
		_srand         		CODE           	135C	0000	49
		_rand          		CODE           	1DB4	0000	223

C:\Program Files (x86)\Microchip\xc8\v2.10\pic\sources\c99\common\rand.c estimated size: 272

C:\Program Files (x86)\Microchip\xc8\v2.10\pic\sources\c99\common\awdiv.c
		___awdiv       		CODE           	1C1E	0000	197

C:\Program Files (x86)\Microchip\xc8\v2.10\pic\sources\c99\common\awdiv.c estimated size: 197

../V3.X/collisions.c
		_checkLine     		CODE           	181C	0000	153
		_checkCollision		CODE           	1F80	0000	241
		_eraseLine     		CODE           	1E92	0000	239
		_putPiece      		CODE           	1790	0000	141

../V3.X/collisions.c estimated size: 774

../V3.X/glcd.c
		_glcd_SetCursor		CODE           	162C	0000	105
		_glcd_draw_shape		CODE           	150A	0000	95
		_glcd_WriteByte		CODE           	13BE	0000	59
		_glcd_Rect     		CODE           	1AA0	0000	191
		_glcd_Init     		CODE           	18B4	0000	159
		_glcd_ReadByte 		CODE           	13F8	0000	59
		_glcd_FillScreen		CODE           	1710	0000	129
		_glcd_draw_cube		CODE           	1568	0000	97
		_glcd_PlotPixel		CODE           	1CE2	0000	211
		_glcd_print_tab		CODE           	1B5E	0000	193

../V3.X/glcd.c estimated size: 1298

newmain.c
		_affMenu       		CODE           	2D12	0000	2361
		_menu          		CODE           	1694	0000	125
		_menuTetris    		CODE           	2070	0000	527
		_main          		CODE           	364A	0000	2487

newmain.c estimated size: 5500

../V3.X/formes.c
		_makeForme     		CODE           	2774	0000	1439
		_changePos     		CODE           	138C	0000	51
		_transformForm 		CODE           	227E	0000	1271

../V3.X/formes.c estimated size: 2761

C:\Program Files (x86)\Microchip\xc8\v2.10\pic\sources\c99\common\time.c
		_time          		CODE           	146E	0000	77

C:\Program Files (x86)\Microchip\xc8\v2.10\pic\sources\c99\common\time.c estimated size: 77

shared
		__initialization		CODE           	14BA	0000	71

shared estimated size: 71

C:\Program Files (x86)\Microchip\xc8\v2.10\pic\sources\c99\common\Umul64.c
		___omul        		CODE           	1952	0000	159

C:\Program Files (x86)\Microchip\xc8\v2.10\pic\sources\c99\common\Umul64.c estimated size: 159

../V3.X/init.c
		_initMyPIC18F  		CODE           	132C	0000	49

../V3.X/init.c estimated size: 49

C:\Program Files (x86)\Microchip\xc8\v2.10\pic\sources\c99\common\Umul16.c
		___wmul        		CODE           	1306	0000	39

C:\Program Files (x86)\Microchip\xc8\v2.10\pic\sources\c99\common\Umul16.c estimated size: 39

C:\Program Files (x86)\Microchip\xc8\v2.10\pic\sources\c99\common\lwmod.c
		___lwmod       		CODE           	15C8	0000	101

C:\Program Files (x86)\Microchip\xc8\v2.10\pic\sources\c99\common\lwmod.c estimated size: 101

C:\Program Files (x86)\Microchip\xc8\v2.10\pic\sources\c99\common\awmod.c
		___awmod       		CODE           	19F0	0000	177

C:\Program Files (x86)\Microchip\xc8\v2.10\pic\sources\c99\common\awmod.c estimated size: 177

