

Microchip MPLAB XC8 Assembler V2.10 build 88905656 
                                                                                               Tue Dec 03 16:48:29 2019

Microchip MPLAB XC8 C Compiler v2.10 (Free license) build 20190730164152 Og1 
     1                           	processor	18F4450
     2                           	fnconf	rparam,??,?,0
     3                           	opt	pw 120
     4                           	opt	flic
     5                           	psect	idataBANK0,global,class=CODE,delta=1,noexec
     6                           	psect	cinit,global,reloc=2,class=CODE,delta=1
     7                           	psect	bssCOMRAM,global,class=COMRAM,space=1,delta=1,noexec
     8                           	psect	bssBANK0,global,class=BANK0,space=1,delta=1,lowdata,noexec
     9                           	psect	dataBANK0,global,class=BANK0,space=1,delta=1,lowdata,noexec
    10                           	psect	bssBANK1,global,class=BANK1,space=1,delta=1,lowdata,noexec
    11                           	psect	bssBANK4,global,class=BANK4,space=1,delta=1,lowdata,noexec
    12                           	psect	cstackBANK1,global,class=BANK1,space=1,delta=1,noexec
    13                           	psect	cstackBANK0,global,class=BANK0,space=1,delta=1,noexec
    14                           	psect	cstackCOMRAM,global,class=COMRAM,space=1,delta=1,noexec
    15                           	psect	text0,global,reloc=2,class=CODE,delta=1
    16                           	psect	text1,global,reloc=2,class=CODE,delta=1
    17                           	psect	text2,global,reloc=2,class=CODE,delta=1,group=2
    18                           	psect	text3,global,reloc=2,class=CODE,delta=1,group=2
    19                           	psect	text4,global,reloc=2,class=CODE,delta=1,group=2
    20                           	psect	text5,global,reloc=2,class=CODE,delta=1,group=1
    21                           	psect	text6,global,reloc=2,class=CODE,delta=1
    22                           	psect	text7,global,reloc=2,class=CODE,delta=1
    23                           	psect	text8,global,reloc=2,class=CODE,delta=1
    24                           	psect	text9,global,reloc=2,class=CODE,delta=1
    25                           	psect	text10,global,reloc=2,class=CODE,delta=1
    26                           	psect	text11,global,reloc=2,class=CODE,delta=1
    27                           	psect	text12,global,reloc=2,class=CODE,delta=1
    28                           	psect	text13,global,reloc=2,class=CODE,delta=1
    29                           	psect	text14,global,reloc=2,class=CODE,delta=1
    30                           	psect	text15,global,reloc=2,class=CODE,delta=1
    31                           	psect	text16,global,reloc=2,class=CODE,delta=1
    32                           	psect	text17,global,reloc=2,class=CODE,delta=1
    33                           	psect	text18,global,reloc=2,class=CODE,delta=1,group=1
    34                           	psect	text19,global,reloc=2,class=CODE,delta=1
    35                           	psect	text20,global,reloc=2,class=CODE,delta=1
    36                           	psect	text21,global,reloc=2,class=CODE,delta=1
    37                           	psect	text22,global,reloc=2,class=CODE,delta=1
    38                           	psect	text23,global,reloc=2,class=CODE,delta=1
    39                           	psect	text24,global,reloc=2,class=CODE,delta=1
    40                           	psect	text25,global,reloc=2,class=CODE,delta=1,group=1
    41                           	psect	text26,global,reloc=2,class=CODE,delta=1
    42                           	psect	text27,global,reloc=2,class=CODE,delta=1
    43                           	psect	text28,global,reloc=2,class=CODE,delta=1,group=1
    44                           	psect	text29,global,reloc=2,class=CODE,delta=1,group=1
    45                           	psect	intsave_regs,global,class=BIGRAM,space=1,delta=1,noexec
    46                           	psect	rparam,global,class=COMRAM,space=1,delta=1,noexec
    47  0000                     
    48                           ; Version 2.10
    49                           ; Generated 31/07/2019 GMT
    50                           ; 
    51                           ; Copyright © 2019, Microchip Technology Inc. and its subsidiaries ("Microchip")
    52                           ; All rights reserved.
    53                           ; 
    54                           ; This software is developed by Microchip Technology Inc. and its subsidiaries ("Microch
      +                          ip").
    55                           ; 
    56                           ; Redistribution and use in source and binary forms, with or without modification, are
    57                           ; permitted provided that the following conditions are met:
    58                           ; 
    59                           ;     1. Redistributions of source code must retain the above copyright notice, this lis
      +                          t of
    60                           ;        conditions and the following disclaimer.
    61                           ; 
    62                           ;     2. Redistributions in binary form must reproduce the above copyright notice, this 
      +                          list
    63                           ;        of conditions and the following disclaimer in the documentation and/or other
    64                           ;        materials provided with the distribution.
    65                           ; 
    66                           ;     3. Microchip's name may not be used to endorse or promote products derived from th
      +                          is
    67                           ;        software without specific prior written permission.
    68                           ; 
    69                           ; THIS SOFTWARE IS PROVIDED BY MICROCHIP "AS IS" AND ANY EXPRESS OR IMPLIED WARRANTIES,
    70                           ; INCLUDING, BUT NOT LIMITED TO, THE IMPLIED WARRANTIES OF MERCHANTABILITY AND FITNESS F
      +                          OR
    71                           ; PURPOSE ARE DISCLAIMED.  IN NO EVENT SHALL MICROCHIP BE LIABLE FOR ANY DIRECT, INDIREC
      +                          T,
    72                           ; INCIDENTAL, SPECIAL, EXEMPLARY, OR CONSEQUENTIAL DAMAGES (INCLUDING BUT NOT LIMITED TO
    73                           ; PROCUREMENT OF SUBSTITUTE GOODS OR SERVICES; LOSS OF USE, DATA OR PROFITS; OR BUSINESS
    74                           ; INTERRUPTION) HOWSOEVER CAUSED AND ON ANY THEORY OF LIABILITY, WHETHER IN CONTRACT, ST
      +                          RICT
    75                           ; LIABILITY, OR TORT (INCLUDING NEGLIGENCE OR OTHERWISE) ARISING IN ANY WAY OUT OF THE U
      +                          SE OF
    76                           ; THIS SOFTWARE, EVEN IF ADVISED OF THE POSSIBILITY OF SUCH DAMAGE.
    77                           ; 
    78                           ; 
    79                           ; Code-generator required, PIC18F4450 Definitions
    80                           ; 
    81                           ; SFR Addresses
    82  0000                     
    83                           	psect	idataBANK0
    84  001432                     __pidataBANK0:
    85                           	opt callstack 0
    86                           
    87                           ;initializer for _partition
    88  001432  B9                 	db	185
    89  001433  00                 	db	0
    90  001434  45                 	db	69
    91  001435  01                 	db	1
    92  001436  4A                 	db	74
    93  001437  02                 	db	2
    94  001438  A5                 	db	165
    95  001439  03                 	db	3
    96  00143A  4A                 	db	74
    97  00143B  02                 	db	2
    98  00143C  45                 	db	69
    99  00143D  01                 	db	1
   100  00143E  7D                 	db	125
   101  00143F  04                 	db	4
   102  001440  3E                 	db	62
   103  001441  04                 	db	4
   104  001442  4A                 	db	74
   105  001443  02                 	db	2
   106  001444  B9                 	db	185
   107  001445  00                 	db	0
   108  001446  52                 	db	82
   109  001447  03                 	db	3
   110  001448  4A                 	db	74
   111  001449  02                 	db	2
   112  00144A  CF                 	db	207
   113  00144B  01                 	db	1
   114  00144C  4A                 	db	74
   115  00144D  02                 	db	2
   116  00144E  A5                 	db	165
   117  00144F  03                 	db	3
   118  001450  B9                 	db	185
   119  001451  00                 	db	0
   120  001452  93                 	db	147
   121  001453  02                 	db	2
   122  001454  7D                 	db	125
   123  001455  04                 	db	4
   124  001456  7D                 	db	125
   125  001457  04                 	db	4
   126  001458  A5                 	db	165
   127  001459  03                 	db	3
   128  00145A  63                 	db	99
   129  00145B  05                 	db	5
   130  00145C  7D                 	db	125
   131  00145D  07                 	db	7
   132  00145E  6F                 	db	111
   133  00145F  06                 	db	6
   134  001460  63                 	db	99
   135  001461  05                 	db	5
   136  001462  FF                 	db	255
   137  001463  00                 	db	0
   138  001464  4A                 	db	74
   139  001465  02                 	db	2
   140  001466  B9                 	db	185
   141  001467  00                 	db	0
   142  001468  52                 	db	82
   143  001469  03                 	db	3
   144  00146A  4A                 	db	74
   145  00146B  02                 	db	2
   146  00146C  8B                 	db	139
   147  00146D  01                 	db	1
   148  0000                     _TRISCbits	set	3988
   149  0000                     _PORTC	set	3970
   150  0000                     _PORTB	set	3969
   151  0000                     _PORTA	set	3968
   152  0000                     _TRISE	set	3990
   153  0000                     _TRISC	set	3988
   154  0000                     _TRISB	set	3987
   155  0000                     _TRISA	set	3986
   156  0000                     _ADCON0	set	4034
   157  0000                     _ADCON1	set	4033
   158  0000                     _LATD	set	3980
   159  0000                     _TRISD	set	3989
   160  0000                     _LATBbits	set	3978
   161  0000                     _PORTD	set	3971
   162  0000                     _PORTE	set	3972
   163  0000                     _PORTCbits	set	3970
   164                           
   165                           ; #config settings
   166  0000                     
   167                           	psect	cinit
   168  0014BA                     __pcinit:
   169                           	opt callstack 0
   170  0014BA                     start_initialization:
   171                           	opt callstack 0
   172  0014BA                     __initialization:
   173                           	opt callstack 0
   174                           
   175                           ; Initialize objects allocated to BANK0 (60 bytes)
   176                           ; load TBLPTR registers with __pidataBANK0
   177  0014BA  0E32               	movlw	low __pidataBANK0
   178  0014BC  6EF6               	movwf	tblptrl,c
   179  0014BE  0E14               	movlw	high __pidataBANK0
   180  0014C0  6EF7               	movwf	tblptrh,c
   181  0014C2  0E00               	movlw	low (__pidataBANK0 shr (0+16))
   182  0014C4  6EF8               	movwf	tblptru,c
   183  0014C6  EE00  F060         	lfsr	0,__pdataBANK0
   184  0014CA  EE10 F03C          	lfsr	1,60
   185  0014CE                     copy_data0:
   186  0014CE  0009               	tblrd		*+
   187  0014D0  CFF5 FFEE          	movff	tablat,postinc0
   188  0014D4  50E5               	movf	postdec1,w,c
   189  0014D6  50E1               	movf	fsr1l,w,c
   190  0014D8  E1FA               	bnz	copy_data0
   191                           
   192                           ; Clear objects allocated to BANK4 (220 bytes)
   193  0014DA  EE04  F000         	lfsr	0,__pbssBANK4
   194  0014DE  0EDC               	movlw	220
   195  0014E0                     clear_0:
   196  0014E0  6AEE               	clrf	postinc0,c
   197  0014E2  06E8               	decf	wreg,f,c
   198  0014E4  E1FD               	bnz	clear_0
   199                           
   200                           ; Clear objects allocated to BANK1 (16 bytes)
   201  0014E6  EE01  F0DC         	lfsr	0,__pbssBANK1
   202  0014EA  0E10               	movlw	16
   203  0014EC                     clear_1:
   204  0014EC  6AEE               	clrf	postinc0,c
   205  0014EE  06E8               	decf	wreg,f,c
   206  0014F0  E1FD               	bnz	clear_1
   207                           
   208                           ; Clear objects allocated to BANK0 (25 bytes)
   209  0014F2  EE00  F09C         	lfsr	0,__pbssBANK0
   210  0014F6  0E19               	movlw	25
   211  0014F8                     clear_2:
   212  0014F8  6AEE               	clrf	postinc0,c
   213  0014FA  06E8               	decf	wreg,f,c
   214  0014FC  E1FD               	bnz	clear_2
   215                           
   216                           ; Clear objects allocated to COMRAM (1 bytes)
   217  0014FE  6A5F               	clrf	__pbssCOMRAM& (0+255),c
   218  001500                     end_of_initialization:
   219                           	opt callstack 0
   220  001500                     __end_of__initialization:
   221                           	opt callstack 0
   222  001500  0E00               	movlw	low (__Lmediumconst shr (0+16))
   223  001502  6EF8               	movwf	tblptru,c
   224  001504  0100               	movlb	0
   225  001506  EF25  F01B         	goto	_main	;jump to C main() function
   226                           
   227                           	psect	bssCOMRAM
   228  00005F                     __pbssCOMRAM:
   229                           	opt callstack 0
   230  00005F                     _x:
   231                           	opt callstack 0
   232  00005F                     	ds	1
   233                           
   234                           	psect	bssBANK0
   235  00009C                     __pbssBANK0:
   236                           	opt callstack 0
   237  00009C                     	ds	16
   238  0000AC                     _y:
   239                           	opt callstack 0
   240  0000AC                     	ds	1
   241  0000AD                     _seed:
   242                           	opt callstack 0
   243  0000AD                     	ds	8
   244                           
   245                           	psect	dataBANK0
   246  000060                     __pdataBANK0:
   247                           	opt callstack 0
   248  000060                     _partition:
   249                           	opt callstack 0
   250  000060                     	ds	60
   251                           
   252                           	psect	bssBANK1
   253  0001DC                     __pbssBANK1:
   254                           	opt callstack 0
   255  0001DC                     	ds	8
   256  0001E4                     	ds	8
   257                           
   258                           	psect	bssBANK4
   259  000400                     __pbssBANK4:
   260                           	opt callstack 0
   261  000400                     	ds	220
   262                           
   263                           	psect	cstackBANK1
   264  000100                     __pcstackBANK1:
   265                           	opt callstack 0
   266  000100                     main@tab:
   267                           	opt callstack 0
   268                           
   269                           ; 220 bytes @ 0x0
   270  000100                     	ds	220
   271                           
   272                           	psect	cstackBANK0
   273  0000B5                     __pcstackBANK0:
   274                           	opt callstack 0
   275  0000B5                     main@i_277:
   276                           	opt callstack 0
   277                           
   278                           ; 2 bytes @ 0x0
   279  0000B5                     	ds	2
   280  0000B7                     main@j_278:
   281                           	opt callstack 0
   282                           
   283                           ; 2 bytes @ 0x2
   284  0000B7                     	ds	2
   285  0000B9                     main@line:
   286                           	opt callstack 0
   287                           
   288                           ; 2 bytes @ 0x4
   289  0000B9                     	ds	2
   290  0000BB                     main@position:
   291                           	opt callstack 0
   292                           
   293                           ; 2 bytes @ 0x6
   294  0000BB                     	ds	2
   295  0000BD                     main@typeForme:
   296                           	opt callstack 0
   297                           
   298                           ; 2 bytes @ 0x8
   299  0000BD                     	ds	2
   300  0000BF                     main@points:
   301                           	opt callstack 0
   302                           
   303                           ; 2 bytes @ 0xA
   304  0000BF                     	ds	2
   305  0000C1                     main@x:
   306                           	opt callstack 0
   307                           
   308                           ; 2 bytes @ 0xC
   309  0000C1                     	ds	2
   310  0000C3                     main@y:
   311                           	opt callstack 0
   312                           
   313                           ; 2 bytes @ 0xE
   314  0000C3                     	ds	2
   315                           
   316                           	psect	cstackCOMRAM
   317  000001                     __pcstackCOMRAM:
   318                           	opt callstack 0
   319  000001                     ?_checkCollision:
   320                           	opt callstack 0
   321  000001                     ?___wmul:
   322                           	opt callstack 0
   323  000001                     ?___awdiv:
   324                           	opt callstack 0
   325  000001                     ?___lwmod:
   326                           	opt callstack 0
   327  000001                     ?_time:
   328                           	opt callstack 0
   329  000001                     ?___omul:
   330                           	opt callstack 0
   331  000001                     glcd_ReadByte@side:
   332                           	opt callstack 0
   333  000001                     checkCollision@tab:
   334                           	opt callstack 0
   335  000001                     putPiece@tab:
   336                           	opt callstack 0
   337  000001                     makeForme@forme:
   338                           	opt callstack 0
   339  000001                     transformForm@forme:
   340                           	opt callstack 0
   341  000001                     changePos@position:
   342                           	opt callstack 0
   343  000001                     ___wmul@multiplier:
   344                           	opt callstack 0
   345  000001                     ___awdiv@dividend:
   346                           	opt callstack 0
   347  000001                     ___lwmod@dividend:
   348                           	opt callstack 0
   349  000001                     time@t:
   350                           	opt callstack 0
   351  000001                     ___omul@multiplier:
   352                           	opt callstack 0
   353                           
   354                           ; 8 bytes @ 0x0
   355  000001                     	ds	1
   356  000002                     glcd_ReadByte@data:
   357                           	opt callstack 0
   358                           
   359                           ; 1 bytes @ 0x1
   360  000002                     	ds	1
   361  000003                     ??_changePos:
   362  000003                     checkCollision@forme:
   363                           	opt callstack 0
   364  000003                     putPiece@forme:
   365                           	opt callstack 0
   366  000003                     makeForme@i:
   367                           	opt callstack 0
   368  000003                     transformForm@x:
   369                           	opt callstack 0
   370  000003                     ___wmul@multiplicand:
   371                           	opt callstack 0
   372  000003                     ___awdiv@divisor:
   373                           	opt callstack 0
   374  000003                     ___lwmod@divisor:
   375                           	opt callstack 0
   376                           
   377                           ; 2 bytes @ 0x2
   378  000003                     	ds	2
   379  000005                     ??_makeForme:
   380  000005                     ??_checkCollision:
   381  000005                     ___awdiv@counter:
   382                           	opt callstack 0
   383  000005                     ___lwmod@counter:
   384                           	opt callstack 0
   385  000005                     putPiece@points:
   386                           	opt callstack 0
   387  000005                     transformForm@y:
   388                           	opt callstack 0
   389  000005                     ___wmul@product:
   390                           	opt callstack 0
   391                           
   392                           ; 2 bytes @ 0x4
   393  000005                     	ds	1
   394  000006                     ___awdiv@sign:
   395                           	opt callstack 0
   396                           
   397                           ; 1 bytes @ 0x5
   398  000006                     	ds	1
   399  000007                     ??_putPiece:
   400  000007                     ?_checkLine:
   401                           	opt callstack 0
   402  000007                     checkLine@tab:
   403                           	opt callstack 0
   404  000007                     eraseLine@tab:
   405                           	opt callstack 0
   406  000007                     transformForm@position:
   407                           	opt callstack 0
   408  000007                     ___awdiv@quotient:
   409                           	opt callstack 0
   410                           
   411                           ; 2 bytes @ 0x6
   412  000007                     	ds	2
   413  000009                     ??_transformForm:
   414  000009                     glcd_WriteByte@data:
   415                           	opt callstack 0
   416  000009                     checkLine@line:
   417                           	opt callstack 0
   418  000009                     eraseLine@line:
   419                           	opt callstack 0
   420  000009                     makeForme@i_324:
   421                           	opt callstack 0
   422  000009                     srand@s:
   423                           	opt callstack 0
   424  000009                     ___omul@multiplicand:
   425                           	opt callstack 0
   426                           
   427                           ; 8 bytes @ 0x8
   428  000009                     	ds	1
   429  00000A                     glcd_WriteByte@side:
   430                           	opt callstack 0
   431                           
   432                           ; 1 bytes @ 0x9
   433  00000A                     	ds	1
   434  00000B                     ??_srand:
   435  00000B                     ??_checkLine:
   436  00000B                     glcd_FillScreen@color:
   437                           	opt callstack 0
   438  00000B                     glcd_PlotPixel@ypos:
   439                           	opt callstack 0
   440  00000B                     glcd_SetCursor@ypos:
   441                           	opt callstack 0
   442  00000B                     eraseLine@points:
   443                           	opt callstack 0
   444  00000B                     makeForme@j:
   445                           	opt callstack 0
   446                           
   447                           ; 2 bytes @ 0xA
   448  00000B                     	ds	1
   449  00000C                     glcd_FillScreen@j:
   450                           	opt callstack 0
   451  00000C                     glcd_PlotPixel@color:
   452                           	opt callstack 0
   453  00000C                     glcd_SetCursor@side:
   454                           	opt callstack 0
   455                           
   456                           ; 1 bytes @ 0xB
   457  00000C                     	ds	1
   458  00000D                     ??_eraseLine:
   459  00000D                     ??_glcd_PlotPixel:
   460  00000D                     glcd_FillScreen@i:
   461                           	opt callstack 0
   462  00000D                     glcd_SetCursor@xpos:
   463                           	opt callstack 0
   464  00000D                     makeForme@i_326:
   465                           	opt callstack 0
   466                           
   467                           ; 2 bytes @ 0xC
   468  00000D                     	ds	1
   469  00000E                     glcd_Init@mode:
   470                           	opt callstack 0
   471  00000E                     checkCollision@result:
   472                           	opt callstack 0
   473  00000E                     checkLine@nbTrue:
   474                           	opt callstack 0
   475                           
   476                           ; 2 bytes @ 0xD
   477  00000E                     	ds	1
   478  00000F                     glcd_PlotPixel@xpos:
   479                           	opt callstack 0
   480  00000F                     putPiece@i:
   481                           	opt callstack 0
   482  00000F                     makeForme@i_327:
   483                           	opt callstack 0
   484                           
   485                           ; 2 bytes @ 0xE
   486  00000F                     	ds	1
   487  000010                     glcd_PlotPixel@data:
   488                           	opt callstack 0
   489  000010                     checkCollision@i:
   490                           	opt callstack 0
   491  000010                     checkLine@i:
   492                           	opt callstack 0
   493                           
   494                           ; 2 bytes @ 0xF
   495  000010                     	ds	1
   496  000011                     glcd_PlotPixel@side:
   497                           	opt callstack 0
   498  000011                     eraseLine@j_317:
   499                           	opt callstack 0
   500  000011                     makeForme@j_328:
   501                           	opt callstack 0
   502  000011                     ___omul@product:
   503                           	opt callstack 0
   504  000011                     transformForm@newForme:
   505                           	opt callstack 0
   506                           
   507                           ; 16 bytes @ 0x10
   508  000011                     	ds	1
   509  000012                     glcd_Rect@ys:
   510                           	opt callstack 0
   511                           
   512                           ; 1 bytes @ 0x11
   513  000012                     	ds	1
   514  000013                     glcd_Rect@xe:
   515                           	opt callstack 0
   516  000013                     eraseLine@i:
   517                           	opt callstack 0
   518  000013                     makeForme@i_339:
   519                           	opt callstack 0
   520                           
   521                           ; 2 bytes @ 0x12
   522  000013                     	ds	1
   523  000014                     glcd_Rect@ye:
   524                           	opt callstack 0
   525                           
   526                           ; 1 bytes @ 0x13
   527  000014                     	ds	1
   528  000015                     glcd_Rect@color:
   529                           	opt callstack 0
   530  000015                     eraseLine@j:
   531                           	opt callstack 0
   532  000015                     makeForme@i_329:
   533                           	opt callstack 0
   534                           
   535                           ; 2 bytes @ 0x14
   536  000015                     	ds	1
   537  000016                     glcd_Rect@xs:
   538                           	opt callstack 0
   539                           
   540                           ; 1 bytes @ 0x15
   541  000016                     	ds	1
   542  000017                     glcd_Rect@i:
   543                           	opt callstack 0
   544  000017                     makeForme@j_330:
   545                           	opt callstack 0
   546                           
   547                           ; 2 bytes @ 0x16
   548  000017                     	ds	1
   549  000018                     glcd_Rect@j:
   550                           	opt callstack 0
   551                           
   552                           ; 1 bytes @ 0x17
   553  000018                     	ds	1
   554  000019                     ?_rand:
   555                           	opt callstack 0
   556  000019                     glcd_draw_cube@x:
   557                           	opt callstack 0
   558  000019                     makeForme@i_331:
   559                           	opt callstack 0
   560                           
   561                           ; 2 bytes @ 0x18
   562  000019                     	ds	1
   563  00001A                     glcd_draw_cube@color:
   564                           	opt callstack 0
   565                           
   566                           ; 1 bytes @ 0x19
   567  00001A                     	ds	1
   568  00001B                     ??_rand:
   569  00001B                     glcd_draw_cube@y:
   570                           	opt callstack 0
   571  00001B                     makeForme@j_332:
   572                           	opt callstack 0
   573                           
   574                           ; 2 bytes @ 0x1A
   575  00001B                     	ds	1
   576  00001C                     ??_menu:
   577  00001C                     glcd_print_tab@tabAffichage:
   578                           	opt callstack 0
   579  00001C                     glcd_draw_shape@forme:
   580                           	opt callstack 0
   581                           
   582                           ; 2 bytes @ 0x1B
   583  00001C                     	ds	1
   584  00001D                     makeForme@i_333:
   585                           	opt callstack 0
   586                           
   587                           ; 2 bytes @ 0x1C
   588  00001D                     	ds	1
   589  00001E                     ??_glcd_print_tab:
   590  00001E                     glcd_draw_shape@color:
   591                           	opt callstack 0
   592  00001E                     menu@fin:
   593                           	opt callstack 0
   594                           
   595                           ; 2 bytes @ 0x1D
   596  00001E                     	ds	1
   597  00001F                     ??_glcd_draw_shape:
   598  00001F                     makeForme@j_334:
   599                           	opt callstack 0
   600                           
   601                           ; 2 bytes @ 0x1E
   602  00001F                     	ds	2
   603  000021                     glcd_print_tab@i:
   604                           	opt callstack 0
   605  000021                     makeForme@i_335:
   606                           	opt callstack 0
   607  000021                     transformForm@i:
   608                           	opt callstack 0
   609                           
   610                           ; 2 bytes @ 0x20
   611  000021                     	ds	1
   612  000022                     glcd_print_tab@j:
   613                           	opt callstack 0
   614                           
   615                           ; 1 bytes @ 0x21
   616  000022                     	ds	1
   617  000023                     ?___awmod:
   618                           	opt callstack 0
   619  000023                     glcd_draw_shape@j:
   620                           	opt callstack 0
   621  000023                     makeForme@j_336:
   622                           	opt callstack 0
   623  000023                     transformForm@j:
   624                           	opt callstack 0
   625  000023                     ___awmod@dividend:
   626                           	opt callstack 0
   627                           
   628                           ; 2 bytes @ 0x22
   629  000023                     	ds	2
   630  000025                     makeForme@i_337:
   631                           	opt callstack 0
   632  000025                     transformForm@i_353:
   633                           	opt callstack 0
   634  000025                     ___awmod@divisor:
   635                           	opt callstack 0
   636                           
   637                           ; 2 bytes @ 0x24
   638  000025                     	ds	2
   639  000027                     ___awmod@counter:
   640                           	opt callstack 0
   641  000027                     makeForme@j_338:
   642                           	opt callstack 0
   643  000027                     transformForm@j_354:
   644                           	opt callstack 0
   645                           
   646                           ; 2 bytes @ 0x26
   647  000027                     	ds	1
   648  000028                     ___awmod@sign:
   649                           	opt callstack 0
   650                           
   651                           ; 1 bytes @ 0x27
   652  000028                     	ds	1
   653  000029                     transformForm@i_355:
   654                           	opt callstack 0
   655                           
   656                           ; 2 bytes @ 0x28
   657  000029                     	ds	2
   658  00002B                     transformForm@j_356:
   659                           	opt callstack 0
   660                           
   661                           ; 2 bytes @ 0x2A
   662  00002B                     	ds	2
   663  00002D                     transformForm@i_357:
   664                           	opt callstack 0
   665                           
   666                           ; 2 bytes @ 0x2C
   667  00002D                     	ds	2
   668  00002F                     transformForm@j_358:
   669                           	opt callstack 0
   670                           
   671                           ; 2 bytes @ 0x2E
   672  00002F                     	ds	2
   673  000031                     transformForm@i_359:
   674                           	opt callstack 0
   675                           
   676                           ; 2 bytes @ 0x30
   677  000031                     	ds	2
   678  000033                     transformForm@j_360:
   679                           	opt callstack 0
   680                           
   681                           ; 2 bytes @ 0x32
   682  000033                     	ds	2
   683  000035                     transformForm@a:
   684                           	opt callstack 0
   685                           
   686                           ; 2 bytes @ 0x34
   687  000035                     	ds	2
   688  000037                     ??_main:
   689                           
   690                           ; 1 bytes @ 0x36
   691  000037                     	ds	8
   692  00003F                     main@prevForme:
   693                           	opt callstack 0
   694                           
   695                           ; 8 bytes @ 0x3E
   696  00003F                     	ds	8
   697  000047                     main@verif:
   698                           	opt callstack 0
   699                           
   700                           ; 2 bytes @ 0x46
   701  000047                     	ds	2
   702  000049                     main@forme:
   703                           	opt callstack 0
   704                           
   705                           ; 8 bytes @ 0x48
   706  000049                     	ds	8
   707  000051                     main@delay:
   708                           	opt callstack 0
   709                           
   710                           ; 2 bytes @ 0x50
   711  000051                     	ds	2
   712  000053                     main@i:
   713                           	opt callstack 0
   714                           
   715                           ; 2 bytes @ 0x52
   716  000053                     	ds	2
   717  000055                     main@j:
   718                           	opt callstack 0
   719                           
   720                           ; 2 bytes @ 0x54
   721  000055                     	ds	2
   722  000057                     main@i_274:
   723                           	opt callstack 0
   724                           
   725                           ; 2 bytes @ 0x56
   726  000057                     	ds	2
   727  000059                     main@j_275:
   728                           	opt callstack 0
   729                           
   730                           ; 2 bytes @ 0x58
   731  000059                     	ds	2
   732  00005B                     main@i_276:
   733                           	opt callstack 0
   734                           
   735                           ; 2 bytes @ 0x5A
   736  00005B                     	ds	2
   737  00005D                     main@formeEnCours:
   738                           	opt callstack 0
   739                           
   740                           ; 2 bytes @ 0x5C
   741  00005D                     	ds	2
   742                           
   743 ;;
   744 ;;Main: autosize = 0, tempsize = 8, incstack = 0, save=0
   745 ;;
   746 ;; *************** function _main *****************
   747 ;; Defined at:
   748 ;;		line 24 in file "newmain.c"
   749 ;; Parameters:    Size  Location     Type
   750 ;;		None
   751 ;; Auto vars:     Size  Location     Type
   752 ;;  j               2    2[BANK0 ] unsigned short 
   753 ;;  j               2   88[COMRAM] unsigned short 
   754 ;;  j               2   84[COMRAM] unsigned short 
   755 ;;  i               2    0[BANK0 ] unsigned short 
   756 ;;  i               2   90[COMRAM] unsigned short 
   757 ;;  i               2   86[COMRAM] unsigned short 
   758 ;;  i               2   82[COMRAM] unsigned short 
   759 ;;  line            2    4[BANK0 ] unsigned short 
   760 ;;  tab           220    0[BANK1 ] unsigned char [10][22]
   761 ;;  forme           8   72[COMRAM] unsigned char [2][4]
   762 ;;  prevForme       8   62[COMRAM] unsigned char [2][4]
   763 ;;  y               2   14[BANK0 ] unsigned short 
   764 ;;  x               2   12[BANK0 ] unsigned short 
   765 ;;  points          2   10[BANK0 ] unsigned short 
   766 ;;  typeForme       2    8[BANK0 ] unsigned short 
   767 ;;  position        2    6[BANK0 ] unsigned short 
   768 ;;  formeEnCours    2   92[COMRAM] unsigned short 
   769 ;;  delay           2   80[COMRAM] unsigned short 
   770 ;;  verif           2   70[COMRAM] unsigned short 
   771 ;; Return value:  Size  Location     Type
   772 ;;                  1    wreg      void 
   773 ;; Registers used:
   774 ;;		wreg, fsr1l, fsr1h, fsr2l, fsr2h, status,2, status,0, prodl, prodh, cstack
   775 ;; Tracked objects:
   776 ;;		On entry : 0/0
   777 ;;		On exit  : 0/0
   778 ;;		Unchanged: 0/0
   779 ;; Data sizes:     COMRAM   BANK0   BANK1   BANK4
   780 ;;      Params:         0       0       0       0
   781 ;;      Locals:        32      16     220       0
   782 ;;      Temps:          8       0       0       0
   783 ;;      Totals:        40      16     220       0
   784 ;;Total ram usage:      276 bytes
   785 ;; Hardware stack levels required when called:    6
   786 ;; This function calls:
   787 ;;		___awmod
   788 ;;		___lwmod
   789 ;;		___wmul
   790 ;;		_changePos
   791 ;;		_checkCollision
   792 ;;		_checkLine
   793 ;;		_eraseLine
   794 ;;		_glcd_Init
   795 ;;		_glcd_SetCursor
   796 ;;		_glcd_draw_shape
   797 ;;		_glcd_print_tab
   798 ;;		_initMyPIC18F
   799 ;;		_makeForme
   800 ;;		_menu
   801 ;;		_putPiece
   802 ;;		_rand
   803 ;;		_srand
   804 ;;		_time
   805 ;;		_transformForm
   806 ;; This function is called by:
   807 ;;		Startup code after reset
   808 ;; This function uses a non-reentrant model
   809 ;;
   810                           
   811                           	psect	text0
   812  00364A                     __ptext0:
   813                           	opt callstack 0
   814  00364A                     _main:
   815                           	opt callstack 25
   816  00364A                     
   817                           ;newmain.c: 27: 
   818  00364A  EC96  F009         	call	_initMyPIC18F	;wreg free
   819  00364E                     
   820                           ;newmain.c: 28: 
   821  00364E  0E01               	movlw	1
   822  003650  EC5A  F00C         	call	_glcd_Init
   823  003654                     
   824                           ;newmain.c: 29:     glcd_print_tab(tab);
   825  003654  0E00               	movlw	0
   826  003656  6E0B               	movwf	glcd_SetCursor@ypos^0,c
   827  003658  0E01               	movlw	1
   828  00365A  EC16  F00B         	call	_glcd_SetCursor
   829  00365E                     
   830                           ;newmain.c: 32:         if(!(delay % 20) && formeEnCours){
   831  00365E  8082               	bsf	130,0,c	;volatile
   832  003660                     
   833                           ;newmain.c: 33:             if (PORTE == 0x01 && y > 0 && !tab[x][y - 1]&& !tab[x+1][y -
      +                           1]&& !tab[x+2][y - 1]&& !tab[x+3][y - 1]) y--;
   834  003660  EC4A  F00B         	call	_menu	;wreg free
   835  003664                     
   836                           ;newmain.c: 36:             if (PORTE == 0x04 && typeForme != 1) changePos(&position);
   837  003664  0E00               	movlw	0
   838  003666  6E01               	movwf	time@t^0,c
   839  003668  0E00               	movlw	0
   840  00366A  6E02               	movwf	(time@t+1)^0,c
   841  00366C  EC37  F00A         	call	_time	;wreg free
   842  003670  C001  F037         	movff	?_time,??_main
   843  003674  C002  F038         	movff	?_time+1,??_main+1
   844  003678  C003  F039         	movff	?_time+2,??_main+2
   845  00367C  C004  F03A         	movff	?_time+3,??_main+3
   846  003680  C005  F03B         	movff	?_time+4,??_main+4
   847  003684  C006  F03C         	movff	?_time+5,??_main+5
   848  003688  C007  F03D         	movff	?_time+6,??_main+6
   849  00368C  C008  F03E         	movff	?_time+7,??_main+7
   850  003690  C037  F009         	movff	??_main,srand@s
   851  003694  C039  F00A         	movff	??_main+2,srand@s+1
   852  003698  ECAE  F009         	call	_srand	;wreg free
   853  00369C                     
   854                           ;newmain.c: 37:             if(PORTE == 0x01 || PORTE == 0x02 || PORTE == 0x04){
   855  00369C  EE20  F049         	lfsr	2,main@forme
   856  0036A0  0E07               	movlw	7
   857  0036A2                     u2821:
   858  0036A2  6ADE               	clrf	postinc2,c
   859  0036A4  06E8               	decf	wreg,f,c
   860  0036A6  E2FD               	bc	u2821
   861  0036A8                     
   862                           ;newmain.c: 38:                 makeForme(forme, typeForme);
   863  0036A8  EE20  F03F         	lfsr	2,main@prevForme
   864  0036AC  0E07               	movlw	7
   865  0036AE                     u2831:
   866  0036AE  6ADE               	clrf	postinc2,c
   867  0036B0  06E8               	decf	wreg,f,c
   868  0036B2  E2FD               	bc	u2831
   869  0036B4                     
   870                           ;newmain.c: 39:                 transformForm(forme, x, y, position);
   871  0036B4  EE21  F000         	lfsr	2,main@tab
   872  0036B8  0EDB               	movlw	219
   873  0036BA                     u2841:
   874  0036BA  6ADE               	clrf	postinc2,c
   875  0036BC  06E8               	decf	wreg,f,c
   876  0036BE  E2FD               	bc	u2841
   877  0036C0                     
   878                           ;newmain.c: 40:                 glcd_draw_shape(prevForme, 0);
   879  0036C0  0E00               	movlw	0
   880  0036C2  0100               	movlb	0	; () banked
   881  0036C4  6FBC               	movwf	(main@position+1)& (0+255),b
   882  0036C6  0E00               	movlw	0
   883  0036C8  6FBB               	movwf	main@position& (0+255),b
   884  0036CA                     
   885                           ; BSR set to: 0
   886                           ;newmain.c: 41:                 glcd_draw_shape(forme,1);
   887  0036CA  0E00               	movlw	0
   888  0036CC  6FC2               	movwf	(main@x+1)& (0+255),b
   889  0036CE  0E00               	movlw	0
   890  0036D0  6FC1               	movwf	main@x& (0+255),b
   891  0036D2                     
   892                           ; BSR set to: 0
   893  0036D2  0E00               	movlw	0
   894  0036D4  6FC4               	movwf	(main@y+1)& (0+255),b
   895  0036D6  0E00               	movlw	0
   896  0036D8  6FC3               	movwf	main@y& (0+255),b
   897  0036DA                     
   898                           ; BSR set to: 0
   899                           ;newmain.c: 42:             }
   900  0036DA  0E00               	movlw	0
   901  0036DC  6E48               	movwf	(main@verif+1)^0,c
   902  0036DE  0E00               	movlw	0
   903  0036E0  6E47               	movwf	main@verif^0,c
   904  0036E2                     
   905                           ; BSR set to: 0
   906                           ;newmain.c: 43:         }
   907  0036E2  0E00               	movlw	0
   908  0036E4  6E5E               	movwf	(main@formeEnCours+1)^0,c
   909  0036E6  0E00               	movlw	0
   910  0036E8  6E5D               	movwf	main@formeEnCours^0,c
   911  0036EA                     
   912                           ; BSR set to: 0
   913                           ;newmain.c: 44: 
   914  0036EA  0E00               	movlw	0
   915  0036EC  6FBE               	movwf	(main@typeForme+1)& (0+255),b
   916  0036EE  0E00               	movlw	0
   917  0036F0  6FBD               	movwf	main@typeForme& (0+255),b
   918  0036F2                     
   919                           ; BSR set to: 0
   920                           ;newmain.c: 45:         if(!(delay % 50) && formeEnCours){
   921  0036F2  0E00               	movlw	0
   922  0036F4  6E52               	movwf	(main@delay+1)^0,c
   923  0036F6  0E00               	movlw	0
   924  0036F8  6E51               	movwf	main@delay^0,c
   925  0036FA                     
   926                           ; BSR set to: 0
   927                           ;newmain.c: 46:             makeForme(forme, typeForme);
   928  0036FA  0E00               	movlw	0
   929  0036FC  6FC0               	movwf	(main@points+1)& (0+255),b
   930  0036FE  0E00               	movlw	0
   931  003700  6FBF               	movwf	main@points& (0+255),b
   932  003702                     
   933                           ; BSR set to: 0
   934                           ;newmain.c: 49:             glcd_draw_shape(forme,1);
   935  003702  0E00               	movlw	low main@tab
   936  003704  6E1C               	movwf	glcd_print_tab@tabAffichage^0,c
   937  003706  0E01               	movlw	high main@tab
   938  003708  6E1D               	movwf	(glcd_print_tab@tabAffichage+1)^0,c
   939  00370A  ECAF  F00D         	call	_glcd_print_tab	;wreg free
   940                           
   941                           ;newmain.c: 51:         }
   942  00370E  EFE7  F01F         	goto	l4165
   943  003712                     l3955:
   944                           
   945                           ;newmain.c: 52:         delay++;
   946  003712  C051  F001         	movff	main@delay,___lwmod@dividend
   947  003716  C052  F002         	movff	main@delay+1,___lwmod@dividend+1
   948  00371A  0E00               	movlw	0
   949  00371C  6E04               	movwf	(___lwmod@divisor+1)^0,c
   950  00371E  0E14               	movlw	20
   951  003720  6E03               	movwf	___lwmod@divisor^0,c
   952  003722  ECE4  F00A         	call	___lwmod	;wreg free
   953  003726  5001               	movf	?___lwmod^0,w,c
   954  003728  1002               	iorwf	(?___lwmod+1)^0,w,c
   955  00372A  A4D8               	btfss	status,2,c
   956  00372C  EF9A  F01B         	goto	u2851
   957  003730  EF9C  F01B         	goto	u2850
   958  003734                     u2851:
   959  003734  EFA1  F01D         	goto	l4023
   960  003738                     u2850:
   961  003738  505D               	movf	main@formeEnCours^0,w,c
   962  00373A  105E               	iorwf	(main@formeEnCours+1)^0,w,c
   963  00373C  B4D8               	btfsc	status,2,c
   964  00373E  EFA3  F01B         	goto	u2861
   965  003742  EFA5  F01B         	goto	u2860
   966  003746                     u2861:
   967  003746  EFA1  F01D         	goto	l4023
   968  00374A                     u2860:
   969  00374A                     
   970                           ;newmain.c: 53:         if(!formeEnCours){
   971  00374A  0484               	decf	132,w,c	;volatile
   972  00374C  A4D8               	btfss	status,2,c
   973  00374E  EFAB  F01B         	goto	u2871
   974  003752  EFAD  F01B         	goto	u2870
   975  003756                     u2871:
   976  003756  EF4E  F01C         	goto	l3973
   977  00375A                     u2870:
   978  00375A  0100               	movlb	0	; () banked
   979  00375C  51C3               	movf	main@y& (0+255),w,b
   980  00375E  11C4               	iorwf	(main@y+1)& (0+255),w,b
   981  003760  B4D8               	btfsc	status,2,c
   982  003762  EFB5  F01B         	goto	u2881
   983  003766  EFB7  F01B         	goto	u2880
   984  00376A                     u2881:
   985  00376A  EF4E  F01C         	goto	l3973
   986  00376E                     u2880:
   987  00376E                     
   988                           ; BSR set to: 0
   989  00376E  C0C1  F001         	movff	main@x,___wmul@multiplier
   990  003772  C0C2  F002         	movff	main@x+1,___wmul@multiplier+1
   991  003776  0E00               	movlw	0
   992  003778  6E04               	movwf	(___wmul@multiplicand+1)^0,c
   993  00377A  0E0A               	movlw	10
   994  00377C  6E03               	movwf	___wmul@multiplicand^0,c
   995  00377E  EC83  F009         	call	___wmul	;wreg free
   996  003782  0E00               	movlw	low main@tab
   997  003784  6E37               	movwf	??_main^0,c
   998  003786  0E01               	movlw	high main@tab
   999  003788  6E38               	movwf	(??_main+1)^0,c
  1000  00378A  5001               	movf	?___wmul^0,w,c
  1001  00378C  2637               	addwf	??_main^0,f,c
  1002  00378E  5002               	movf	(?___wmul+1)^0,w,c
  1003  003790  2238               	addwfc	(??_main+1)^0,f,c
  1004  003792  0100               	movlb	0	; () banked
  1005  003794  51C3               	movf	main@y& (0+255),w,b
  1006  003796  2637               	addwf	??_main^0,f,c
  1007  003798  51C4               	movf	(main@y+1)& (0+255),w,b
  1008  00379A  2238               	addwfc	(??_main+1)^0,f,c
  1009  00379C  0EFF               	movlw	255
  1010  00379E  2437               	addwf	??_main^0,w,c
  1011  0037A0  6ED9               	movwf	fsr2l,c
  1012  0037A2  0EFF               	movlw	255
  1013  0037A4  2038               	addwfc	(??_main+1)^0,w,c
  1014  0037A6  6EDA               	movwf	fsr2h,c
  1015  0037A8  50DF               	movf	indf2,w,c
  1016  0037AA  A4D8               	btfss	status,2,c
  1017  0037AC  EFDA  F01B         	goto	u2891
  1018  0037B0  EFDC  F01B         	goto	u2890
  1019  0037B4                     u2891:
  1020  0037B4  EF4E  F01C         	goto	l3973
  1021  0037B8                     u2890:
  1022  0037B8                     
  1023                           ; BSR set to: 0
  1024  0037B8  C0C1  F001         	movff	main@x,___wmul@multiplier
  1025  0037BC  C0C2  F002         	movff	main@x+1,___wmul@multiplier+1
  1026  0037C0  0E00               	movlw	0
  1027  0037C2  6E04               	movwf	(___wmul@multiplicand+1)^0,c
  1028  0037C4  0E0A               	movlw	10
  1029  0037C6  6E03               	movwf	___wmul@multiplicand^0,c
  1030  0037C8  EC83  F009         	call	___wmul	;wreg free
  1031  0037CC  0E00               	movlw	low main@tab
  1032  0037CE  6E37               	movwf	??_main^0,c
  1033  0037D0  0E01               	movlw	high main@tab
  1034  0037D2  6E38               	movwf	(??_main+1)^0,c
  1035  0037D4  5001               	movf	?___wmul^0,w,c
  1036  0037D6  2637               	addwf	??_main^0,f,c
  1037  0037D8  5002               	movf	(?___wmul+1)^0,w,c
  1038  0037DA  2238               	addwfc	(??_main+1)^0,f,c
  1039  0037DC  0100               	movlb	0	; () banked
  1040  0037DE  51C3               	movf	main@y& (0+255),w,b
  1041  0037E0  2637               	addwf	??_main^0,f,c
  1042  0037E2  51C4               	movf	(main@y+1)& (0+255),w,b
  1043  0037E4  2238               	addwfc	(??_main+1)^0,f,c
  1044  0037E6  0E09               	movlw	9
  1045  0037E8  2437               	addwf	??_main^0,w,c
  1046  0037EA  6ED9               	movwf	fsr2l,c
  1047  0037EC  0E00               	movlw	0
  1048  0037EE  2038               	addwfc	(??_main+1)^0,w,c
  1049  0037F0  6EDA               	movwf	fsr2h,c
  1050  0037F2  50DF               	movf	indf2,w,c
  1051  0037F4  A4D8               	btfss	status,2,c
  1052  0037F6  EFFF  F01B         	goto	u2901
  1053  0037FA  EF01  F01C         	goto	u2900
  1054  0037FE                     u2901:
  1055  0037FE  EF4E  F01C         	goto	l3973
  1056  003802                     u2900:
  1057  003802                     
  1058                           ; BSR set to: 0
  1059  003802  C0C1  F001         	movff	main@x,___wmul@multiplier
  1060  003806  C0C2  F002         	movff	main@x+1,___wmul@multiplier+1
  1061  00380A  0E00               	movlw	0
  1062  00380C  6E04               	movwf	(___wmul@multiplicand+1)^0,c
  1063  00380E  0E0A               	movlw	10
  1064  003810  6E03               	movwf	___wmul@multiplicand^0,c
  1065  003812  EC83  F009         	call	___wmul	;wreg free
  1066  003816  0E00               	movlw	low main@tab
  1067  003818  6E37               	movwf	??_main^0,c
  1068  00381A  0E01               	movlw	high main@tab
  1069  00381C  6E38               	movwf	(??_main+1)^0,c
  1070  00381E  5001               	movf	?___wmul^0,w,c
  1071  003820  2637               	addwf	??_main^0,f,c
  1072  003822  5002               	movf	(?___wmul+1)^0,w,c
  1073  003824  2238               	addwfc	(??_main+1)^0,f,c
  1074  003826  0100               	movlb	0	; () banked
  1075  003828  51C3               	movf	main@y& (0+255),w,b
  1076  00382A  2637               	addwf	??_main^0,f,c
  1077  00382C  51C4               	movf	(main@y+1)& (0+255),w,b
  1078  00382E  2238               	addwfc	(??_main+1)^0,f,c
  1079  003830  0E13               	movlw	19
  1080  003832  2437               	addwf	??_main^0,w,c
  1081  003834  6ED9               	movwf	fsr2l,c
  1082  003836  0E00               	movlw	0
  1083  003838  2038               	addwfc	(??_main+1)^0,w,c
  1084  00383A  6EDA               	movwf	fsr2h,c
  1085  00383C  50DF               	movf	indf2,w,c
  1086  00383E  A4D8               	btfss	status,2,c
  1087  003840  EF24  F01C         	goto	u2911
  1088  003844  EF26  F01C         	goto	u2910
  1089  003848                     u2911:
  1090  003848  EF4E  F01C         	goto	l3973
  1091  00384C                     u2910:
  1092  00384C                     
  1093                           ; BSR set to: 0
  1094  00384C  C0C1  F001         	movff	main@x,___wmul@multiplier
  1095  003850  C0C2  F002         	movff	main@x+1,___wmul@multiplier+1
  1096  003854  0E00               	movlw	0
  1097  003856  6E04               	movwf	(___wmul@multiplicand+1)^0,c
  1098  003858  0E0A               	movlw	10
  1099  00385A  6E03               	movwf	___wmul@multiplicand^0,c
  1100  00385C  EC83  F009         	call	___wmul	;wreg free
  1101  003860  0E00               	movlw	low main@tab
  1102  003862  6E37               	movwf	??_main^0,c
  1103  003864  0E01               	movlw	high main@tab
  1104  003866  6E38               	movwf	(??_main+1)^0,c
  1105  003868  5001               	movf	?___wmul^0,w,c
  1106  00386A  2637               	addwf	??_main^0,f,c
  1107  00386C  5002               	movf	(?___wmul+1)^0,w,c
  1108  00386E  2238               	addwfc	(??_main+1)^0,f,c
  1109  003870  0100               	movlb	0	; () banked
  1110  003872  51C3               	movf	main@y& (0+255),w,b
  1111  003874  2637               	addwf	??_main^0,f,c
  1112  003876  51C4               	movf	(main@y+1)& (0+255),w,b
  1113  003878  2238               	addwfc	(??_main+1)^0,f,c
  1114  00387A  0E1D               	movlw	29
  1115  00387C  2437               	addwf	??_main^0,w,c
  1116  00387E  6ED9               	movwf	fsr2l,c
  1117  003880  0E00               	movlw	0
  1118  003882  2038               	addwfc	(??_main+1)^0,w,c
  1119  003884  6EDA               	movwf	fsr2h,c
  1120  003886  50DF               	movf	indf2,w,c
  1121  003888  A4D8               	btfss	status,2,c
  1122  00388A  EF49  F01C         	goto	u2921
  1123  00388E  EF4B  F01C         	goto	u2920
  1124  003892                     u2921:
  1125  003892  EF4E  F01C         	goto	l3973
  1126  003896                     u2920:
  1127  003896                     
  1128                           ; BSR set to: 0
  1129  003896  07C3               	decf	main@y& (0+255),f,b
  1130  003898  A0D8               	btfss	status,0,c
  1131  00389A  07C4               	decf	(main@y+1)& (0+255),f,b
  1132  00389C                     l3973:
  1133                           
  1134                           ;newmain.c: 54:    x = 0, y = 4;
  1135  00389C  0E02               	movlw	2
  1136  00389E  1884               	xorwf	132,w,c	;volatile
  1137  0038A0  A4D8               	btfss	status,2,c
  1138  0038A2  EF55  F01C         	goto	u2931
  1139  0038A6  EF57  F01C         	goto	u2930
  1140  0038AA                     u2931:
  1141  0038AA  EF42  F01D         	goto	l4003
  1142  0038AE                     u2930:
  1143  0038AE  C0C1  F001         	movff	main@x,___wmul@multiplier
  1144  0038B2  C0C2  F002         	movff	main@x+1,___wmul@multiplier+1
  1145  0038B6  0E00               	movlw	0
  1146  0038B8  6E04               	movwf	(___wmul@multiplicand+1)^0,c
  1147  0038BA  0E0A               	movlw	10
  1148  0038BC  6E03               	movwf	___wmul@multiplicand^0,c
  1149  0038BE  EC83  F009         	call	___wmul	;wreg free
  1150  0038C2  0E00               	movlw	low main@tab
  1151  0038C4  6E37               	movwf	??_main^0,c
  1152  0038C6  0E01               	movlw	high main@tab
  1153  0038C8  6E38               	movwf	(??_main+1)^0,c
  1154  0038CA  5001               	movf	?___wmul^0,w,c
  1155  0038CC  2637               	addwf	??_main^0,f,c
  1156  0038CE  5002               	movf	(?___wmul+1)^0,w,c
  1157  0038D0  2238               	addwfc	(??_main+1)^0,f,c
  1158  0038D2  0100               	movlb	0	; () banked
  1159  0038D4  51C3               	movf	main@y& (0+255),w,b
  1160  0038D6  2637               	addwf	??_main^0,f,c
  1161  0038D8  51C4               	movf	(main@y+1)& (0+255),w,b
  1162  0038DA  2238               	addwfc	(??_main+1)^0,f,c
  1163  0038DC  0E01               	movlw	1
  1164  0038DE  2437               	addwf	??_main^0,w,c
  1165  0038E0  6ED9               	movwf	fsr2l,c
  1166  0038E2  0E00               	movlw	0
  1167  0038E4  2038               	addwfc	(??_main+1)^0,w,c
  1168  0038E6  6EDA               	movwf	fsr2h,c
  1169  0038E8  50DF               	movf	indf2,w,c
  1170  0038EA  A4D8               	btfss	status,2,c
  1171  0038EC  EF7A  F01C         	goto	u2941
  1172  0038F0  EF7C  F01C         	goto	u2940
  1173  0038F4                     u2941:
  1174  0038F4  EF42  F01D         	goto	l4003
  1175  0038F8                     u2940:
  1176  0038F8                     
  1177                           ; BSR set to: 0
  1178  0038F8  C0C1  F001         	movff	main@x,___wmul@multiplier
  1179  0038FC  C0C2  F002         	movff	main@x+1,___wmul@multiplier+1
  1180  003900  0E00               	movlw	0
  1181  003902  6E04               	movwf	(___wmul@multiplicand+1)^0,c
  1182  003904  0E0A               	movlw	10
  1183  003906  6E03               	movwf	___wmul@multiplicand^0,c
  1184  003908  EC83  F009         	call	___wmul	;wreg free
  1185  00390C  0E00               	movlw	low main@tab
  1186  00390E  6E37               	movwf	??_main^0,c
  1187  003910  0E01               	movlw	high main@tab
  1188  003912  6E38               	movwf	(??_main+1)^0,c
  1189  003914  5001               	movf	?___wmul^0,w,c
  1190  003916  2637               	addwf	??_main^0,f,c
  1191  003918  5002               	movf	(?___wmul+1)^0,w,c
  1192  00391A  2238               	addwfc	(??_main+1)^0,f,c
  1193  00391C  0100               	movlb	0	; () banked
  1194  00391E  51C3               	movf	main@y& (0+255),w,b
  1195  003920  2637               	addwf	??_main^0,f,c
  1196  003922  51C4               	movf	(main@y+1)& (0+255),w,b
  1197  003924  2238               	addwfc	(??_main+1)^0,f,c
  1198  003926  0E09               	movlw	9
  1199  003928  2437               	addwf	??_main^0,w,c
  1200  00392A  6ED9               	movwf	fsr2l,c
  1201  00392C  0E00               	movlw	0
  1202  00392E  2038               	addwfc	(??_main+1)^0,w,c
  1203  003930  6EDA               	movwf	fsr2h,c
  1204  003932  50DF               	movf	indf2,w,c
  1205  003934  A4D8               	btfss	status,2,c
  1206  003936  EF9F  F01C         	goto	u2951
  1207  00393A  EFA1  F01C         	goto	u2950
  1208  00393E                     u2951:
  1209  00393E  EF42  F01D         	goto	l4003
  1210  003942                     u2950:
  1211  003942                     
  1212                           ; BSR set to: 0
  1213  003942  C0C1  F001         	movff	main@x,___wmul@multiplier
  1214  003946  C0C2  F002         	movff	main@x+1,___wmul@multiplier+1
  1215  00394A  0E00               	movlw	0
  1216  00394C  6E04               	movwf	(___wmul@multiplicand+1)^0,c
  1217  00394E  0E0A               	movlw	10
  1218  003950  6E03               	movwf	___wmul@multiplicand^0,c
  1219  003952  EC83  F009         	call	___wmul	;wreg free
  1220  003956  0E00               	movlw	low main@tab
  1221  003958  6E37               	movwf	??_main^0,c
  1222  00395A  0E01               	movlw	high main@tab
  1223  00395C  6E38               	movwf	(??_main+1)^0,c
  1224  00395E  5001               	movf	?___wmul^0,w,c
  1225  003960  2637               	addwf	??_main^0,f,c
  1226  003962  5002               	movf	(?___wmul+1)^0,w,c
  1227  003964  2238               	addwfc	(??_main+1)^0,f,c
  1228  003966  0100               	movlb	0	; () banked
  1229  003968  51C3               	movf	main@y& (0+255),w,b
  1230  00396A  2637               	addwf	??_main^0,f,c
  1231  00396C  51C4               	movf	(main@y+1)& (0+255),w,b
  1232  00396E  2238               	addwfc	(??_main+1)^0,f,c
  1233  003970  0E13               	movlw	19
  1234  003972  2437               	addwf	??_main^0,w,c
  1235  003974  6ED9               	movwf	fsr2l,c
  1236  003976  0E00               	movlw	0
  1237  003978  2038               	addwfc	(??_main+1)^0,w,c
  1238  00397A  6EDA               	movwf	fsr2h,c
  1239  00397C  50DF               	movf	indf2,w,c
  1240  00397E  A4D8               	btfss	status,2,c
  1241  003980  EFC4  F01C         	goto	u2961
  1242  003984  EFC6  F01C         	goto	u2960
  1243  003988                     u2961:
  1244  003988  EF42  F01D         	goto	l4003
  1245  00398C                     u2960:
  1246  00398C                     
  1247                           ; BSR set to: 0
  1248  00398C  C0C1  F001         	movff	main@x,___wmul@multiplier
  1249  003990  C0C2  F002         	movff	main@x+1,___wmul@multiplier+1
  1250  003994  0E00               	movlw	0
  1251  003996  6E04               	movwf	(___wmul@multiplicand+1)^0,c
  1252  003998  0E0A               	movlw	10
  1253  00399A  6E03               	movwf	___wmul@multiplicand^0,c
  1254  00399C  EC83  F009         	call	___wmul	;wreg free
  1255  0039A0  0E00               	movlw	low main@tab
  1256  0039A2  6E37               	movwf	??_main^0,c
  1257  0039A4  0E01               	movlw	high main@tab
  1258  0039A6  6E38               	movwf	(??_main+1)^0,c
  1259  0039A8  5001               	movf	?___wmul^0,w,c
  1260  0039AA  2637               	addwf	??_main^0,f,c
  1261  0039AC  5002               	movf	(?___wmul+1)^0,w,c
  1262  0039AE  2238               	addwfc	(??_main+1)^0,f,c
  1263  0039B0  0100               	movlb	0	; () banked
  1264  0039B2  51C3               	movf	main@y& (0+255),w,b
  1265  0039B4  2637               	addwf	??_main^0,f,c
  1266  0039B6  51C4               	movf	(main@y+1)& (0+255),w,b
  1267  0039B8  2238               	addwfc	(??_main+1)^0,f,c
  1268  0039BA  0E1D               	movlw	29
  1269  0039BC  2437               	addwf	??_main^0,w,c
  1270  0039BE  6ED9               	movwf	fsr2l,c
  1271  0039C0  0E00               	movlw	0
  1272  0039C2  2038               	addwfc	(??_main+1)^0,w,c
  1273  0039C4  6EDA               	movwf	fsr2h,c
  1274  0039C6  50DF               	movf	indf2,w,c
  1275  0039C8  A4D8               	btfss	status,2,c
  1276  0039CA  EFE9  F01C         	goto	u2971
  1277  0039CE  EFEB  F01C         	goto	u2970
  1278  0039D2                     u2971:
  1279  0039D2  EF42  F01D         	goto	l4003
  1280  0039D6                     u2970:
  1281  0039D6                     
  1282                           ; BSR set to: 0
  1283  0039D6  51C4               	movf	(main@y+1)& (0+255),w,b
  1284  0039D8  E107               	bnz	u2981
  1285  0039DA  0E08               	movlw	8
  1286  0039DC  5DC3               	subwf	main@y& (0+255),w,b
  1287  0039DE  B0D8               	btfsc	status,0,c
  1288  0039E0  EFF4  F01C         	goto	u2981
  1289  0039E4  EFF6  F01C         	goto	u2980
  1290  0039E8                     u2981:
  1291  0039E8  EFFD  F01C         	goto	l3987
  1292  0039EC                     u2980:
  1293  0039EC                     
  1294                           ; BSR set to: 0
  1295  0039EC  A1BB               	btfss	main@position& (0+255),0,b
  1296  0039EE  EFFB  F01C         	goto	u2991
  1297  0039F2  EFFD  F01C         	goto	u2990
  1298  0039F6                     u2991:
  1299  0039F6  EF40  F01D         	goto	l4001
  1300  0039FA                     u2990:
  1301  0039FA                     l3987:
  1302                           
  1303                           ; BSR set to: 0
  1304  0039FA  51BD               	movf	main@typeForme& (0+255),w,b
  1305  0039FC  11BE               	iorwf	(main@typeForme+1)& (0+255),w,b
  1306  0039FE  B4D8               	btfsc	status,2,c
  1307  003A00  EF04  F01D         	goto	u3001
  1308  003A04  EF06  F01D         	goto	u3000
  1309  003A08                     u3001:
  1310  003A08  EF11  F01D         	goto	l3991
  1311  003A0C                     u3000:
  1312  003A0C                     
  1313                           ; BSR set to: 0
  1314  003A0C  51C4               	movf	(main@y+1)& (0+255),w,b
  1315  003A0E  E109               	bnz	u3010
  1316  003A10  0E07               	movlw	7
  1317  003A12  5DC3               	subwf	main@y& (0+255),w,b
  1318  003A14  A0D8               	btfss	status,0,c
  1319  003A16  EF0F  F01D         	goto	u3011
  1320  003A1A  EF11  F01D         	goto	u3010
  1321  003A1E                     u3011:
  1322  003A1E  EF40  F01D         	goto	l4001
  1323  003A22                     u3010:
  1324  003A22                     l3991:
  1325                           
  1326                           ; BSR set to: 0
  1327  003A22  51BD               	movf	main@typeForme& (0+255),w,b
  1328  003A24  11BE               	iorwf	(main@typeForme+1)& (0+255),w,b
  1329  003A26  A4D8               	btfss	status,2,c
  1330  003A28  EF18  F01D         	goto	u3021
  1331  003A2C  EF1A  F01D         	goto	u3020
  1332  003A30                     u3021:
  1333  003A30  EF2C  F01D         	goto	l3997
  1334  003A34                     u3020:
  1335  003A34                     
  1336                           ; BSR set to: 0
  1337  003A34  51C4               	movf	(main@y+1)& (0+255),w,b
  1338  003A36  E107               	bnz	u3031
  1339  003A38  0E09               	movlw	9
  1340  003A3A  5DC3               	subwf	main@y& (0+255),w,b
  1341  003A3C  B0D8               	btfsc	status,0,c
  1342  003A3E  EF23  F01D         	goto	u3031
  1343  003A42  EF25  F01D         	goto	u3030
  1344  003A46                     u3031:
  1345  003A46  EF2C  F01D         	goto	l3997
  1346  003A4A                     u3030:
  1347  003A4A                     
  1348                           ; BSR set to: 0
  1349  003A4A  A1BB               	btfss	main@position& (0+255),0,b
  1350  003A4C  EF2A  F01D         	goto	u3041
  1351  003A50  EF2C  F01D         	goto	u3040
  1352  003A54                     u3041:
  1353  003A54  EF40  F01D         	goto	l4001
  1354  003A58                     u3040:
  1355  003A58                     l3997:
  1356                           
  1357                           ; BSR set to: 0
  1358  003A58  51BD               	movf	main@typeForme& (0+255),w,b
  1359  003A5A  11BE               	iorwf	(main@typeForme+1)& (0+255),w,b
  1360  003A5C  A4D8               	btfss	status,2,c
  1361  003A5E  EF33  F01D         	goto	u3051
  1362  003A62  EF35  F01D         	goto	u3050
  1363  003A66                     u3051:
  1364  003A66  EF42  F01D         	goto	l4003
  1365  003A6A                     u3050:
  1366  003A6A                     
  1367                           ; BSR set to: 0
  1368  003A6A  51C4               	movf	(main@y+1)& (0+255),w,b
  1369  003A6C  E107               	bnz	u3061
  1370  003A6E  0E06               	movlw	6
  1371  003A70  5DC3               	subwf	main@y& (0+255),w,b
  1372  003A72  B0D8               	btfsc	status,0,c
  1373  003A74  EF3E  F01D         	goto	u3061
  1374  003A78  EF40  F01D         	goto	u3060
  1375  003A7C                     u3061:
  1376  003A7C  EF42  F01D         	goto	l4003
  1377  003A80                     u3060:
  1378  003A80                     l4001:
  1379                           
  1380                           ; BSR set to: 0
  1381                           ;newmain.c: 55:    typeForme = rand() % 7;
  1382  003A80  4BC3               	infsnz	main@y& (0+255),f,b
  1383  003A82  2BC4               	incf	(main@y+1)& (0+255),f,b
  1384  003A84                     l4003:
  1385                           
  1386                           ;newmain.c: 56:    position = 0;
  1387  003A84  0E04               	movlw	4
  1388  003A86  1884               	xorwf	132,w,c	;volatile
  1389  003A88  A4D8               	btfss	status,2,c
  1390  003A8A  EF49  F01D         	goto	u3071
  1391  003A8E  EF4B  F01D         	goto	u3070
  1392  003A92                     u3071:
  1393  003A92  EF5B  F01D         	goto	l4009
  1394  003A96                     u3070:
  1395  003A96  0100               	movlb	0	; () banked
  1396  003A98  05BD               	decf	main@typeForme& (0+255),w,b
  1397  003A9A  11BE               	iorwf	(main@typeForme+1)& (0+255),w,b
  1398  003A9C  B4D8               	btfsc	status,2,c
  1399  003A9E  EF53  F01D         	goto	u3081
  1400  003AA2  EF55  F01D         	goto	u3080
  1401  003AA6                     u3081:
  1402  003AA6  EF5B  F01D         	goto	l4009
  1403  003AAA                     u3080:
  1404  003AAA                     
  1405                           ; BSR set to: 0
  1406  003AAA  0EBB               	movlw	low main@position
  1407  003AAC  6E01               	movwf	changePos@position^0,c
  1408  003AAE  0E00               	movlw	high main@position
  1409  003AB0  6E02               	movwf	(changePos@position+1)^0,c
  1410  003AB2  ECC6  F009         	call	_changePos	;wreg free
  1411  003AB6                     l4009:
  1412                           
  1413                           ;newmain.c: 57:    formeEnCours = 1;
  1414  003AB6  0484               	decf	132,w,c	;volatile
  1415  003AB8  B4D8               	btfsc	status,2,c
  1416  003ABA  EF61  F01D         	goto	u3091
  1417  003ABE  EF63  F01D         	goto	u3090
  1418  003AC2                     u3091:
  1419  003AC2  EF75  F01D         	goto	l4015
  1420  003AC6                     u3090:
  1421  003AC6  0E02               	movlw	2
  1422  003AC8  1884               	xorwf	132,w,c	;volatile
  1423  003ACA  B4D8               	btfsc	status,2,c
  1424  003ACC  EF6A  F01D         	goto	u3101
  1425  003AD0  EF6C  F01D         	goto	u3100
  1426  003AD4                     u3101:
  1427  003AD4  EF75  F01D         	goto	l4015
  1428  003AD8                     u3100:
  1429  003AD8  0E04               	movlw	4
  1430  003ADA  1884               	xorwf	132,w,c	;volatile
  1431  003ADC  A4D8               	btfss	status,2,c
  1432  003ADE  EF73  F01D         	goto	u3111
  1433  003AE2  EF75  F01D         	goto	u3110
  1434  003AE6                     u3111:
  1435  003AE6  EFA1  F01D         	goto	l4023
  1436  003AEA                     u3110:
  1437  003AEA                     l4015:
  1438                           
  1439                           ;newmain.c: 58:   }else if(checkCollision(tab, forme)){
  1440  003AEA  0E49               	movlw	low main@forme
  1441  003AEC  6E01               	movwf	makeForme@forme^0,c
  1442  003AEE  0E00               	movlw	high main@forme
  1443  003AF0  6E02               	movwf	(makeForme@forme+1)^0,c
  1444  003AF2  C0BD  F003         	movff	main@typeForme,makeForme@i
  1445  003AF6  C0BE  F004         	movff	main@typeForme+1,makeForme@i+1
  1446  003AFA  ECBA  F013         	call	_makeForme	;wreg free
  1447  003AFE                     
  1448                           ;newmain.c: 59:             putPiece(tab, forme, points);
  1449  003AFE  0E49               	movlw	low main@forme
  1450  003B00  6E01               	movwf	transformForm@forme^0,c
  1451  003B02  0E00               	movlw	high main@forme
  1452  003B04  6E02               	movwf	(transformForm@forme+1)^0,c
  1453  003B06  C0C1  F003         	movff	main@x,transformForm@x
  1454  003B0A  C0C2  F004         	movff	main@x+1,transformForm@x+1
  1455  003B0E  C0C3  F005         	movff	main@y,transformForm@y
  1456  003B12  C0C4  F006         	movff	main@y+1,transformForm@y+1
  1457  003B16  C0BB  F007         	movff	main@position,transformForm@position
  1458  003B1A  C0BC  F008         	movff	main@position+1,transformForm@position+1
  1459  003B1E  EC3F  F011         	call	_transformForm	;wreg free
  1460  003B22                     
  1461                           ;newmain.c: 60:             glcd_draw_shape(prevForme,0);
  1462  003B22  0E3F               	movlw	low main@prevForme
  1463  003B24  6E1C               	movwf	glcd_draw_shape@forme^0,c
  1464  003B26  0E00               	movlw	high main@prevForme
  1465  003B28  6E1D               	movwf	(glcd_draw_shape@forme+1)^0,c
  1466  003B2A  0E00               	movlw	0
  1467  003B2C  6E1E               	movwf	glcd_draw_shape@color^0,c
  1468  003B2E  EC85  F00A         	call	_glcd_draw_shape	;wreg free
  1469  003B32                     
  1470                           ;newmain.c: 61:             glcd_draw_shape(forme,1);
  1471  003B32  0E49               	movlw	low main@forme
  1472  003B34  6E1C               	movwf	glcd_draw_shape@forme^0,c
  1473  003B36  0E00               	movlw	high main@forme
  1474  003B38  6E1D               	movwf	(glcd_draw_shape@forme+1)^0,c
  1475  003B3A  0E01               	movlw	1
  1476  003B3C  6E1E               	movwf	glcd_draw_shape@color^0,c
  1477  003B3E  EC85  F00A         	call	_glcd_draw_shape	;wreg free
  1478  003B42                     l4023:
  1479                           
  1480                           ;newmain.c: 65:                     prevForme[i][j] = 0;
  1481  003B42  C051  F001         	movff	main@delay,___lwmod@dividend
  1482  003B46  C052  F002         	movff	main@delay+1,___lwmod@dividend+1
  1483  003B4A  0E00               	movlw	0
  1484  003B4C  6E04               	movwf	(___lwmod@divisor+1)^0,c
  1485  003B4E  0E32               	movlw	50
  1486  003B50  6E03               	movwf	___lwmod@divisor^0,c
  1487  003B52  ECE4  F00A         	call	___lwmod	;wreg free
  1488  003B56  5001               	movf	?___lwmod^0,w,c
  1489  003B58  1002               	iorwf	(?___lwmod+1)^0,w,c
  1490  003B5A  A4D8               	btfss	status,2,c
  1491  003B5C  EFB2  F01D         	goto	u3121
  1492  003B60  EFB4  F01D         	goto	u3120
  1493  003B64                     u3121:
  1494  003B64  EFEC  F01D         	goto	l4037
  1495  003B68                     u3120:
  1496  003B68  505D               	movf	main@formeEnCours^0,w,c
  1497  003B6A  105E               	iorwf	(main@formeEnCours+1)^0,w,c
  1498  003B6C  B4D8               	btfsc	status,2,c
  1499  003B6E  EFBB  F01D         	goto	u3131
  1500  003B72  EFBD  F01D         	goto	u3130
  1501  003B76                     u3131:
  1502  003B76  EFEC  F01D         	goto	l4037
  1503  003B7A                     u3130:
  1504  003B7A                     
  1505                           ;newmain.c: 66:                 }
  1506  003B7A  0E49               	movlw	low main@forme
  1507  003B7C  6E01               	movwf	makeForme@forme^0,c
  1508  003B7E  0E00               	movlw	high main@forme
  1509  003B80  6E02               	movwf	(makeForme@forme+1)^0,c
  1510  003B82  C0BD  F003         	movff	main@typeForme,makeForme@i
  1511  003B86  C0BE  F004         	movff	main@typeForme+1,makeForme@i+1
  1512  003B8A  ECBA  F013         	call	_makeForme	;wreg free
  1513  003B8E                     
  1514                           ;newmain.c: 67:             }
  1515  003B8E  0E49               	movlw	low main@forme
  1516  003B90  6E01               	movwf	transformForm@forme^0,c
  1517  003B92  0E00               	movlw	high main@forme
  1518  003B94  6E02               	movwf	(transformForm@forme+1)^0,c
  1519  003B96  C0C1  F003         	movff	main@x,transformForm@x
  1520  003B9A  C0C2  F004         	movff	main@x+1,transformForm@x+1
  1521  003B9E  C0C3  F005         	movff	main@y,transformForm@y
  1522  003BA2  C0C4  F006         	movff	main@y+1,transformForm@y+1
  1523  003BA6  C0BB  F007         	movff	main@position,transformForm@position
  1524  003BAA  C0BC  F008         	movff	main@position+1,transformForm@position+1
  1525  003BAE  EC3F  F011         	call	_transformForm	;wreg free
  1526  003BB2                     
  1527                           ;newmain.c: 68:             for(unsigned short i = 0; i < 4; i++){
  1528  003BB2  0E3F               	movlw	low main@prevForme
  1529  003BB4  6E1C               	movwf	glcd_draw_shape@forme^0,c
  1530  003BB6  0E00               	movlw	high main@prevForme
  1531  003BB8  6E1D               	movwf	(glcd_draw_shape@forme+1)^0,c
  1532  003BBA  0E00               	movlw	0
  1533  003BBC  6E1E               	movwf	glcd_draw_shape@color^0,c
  1534  003BBE  EC85  F00A         	call	_glcd_draw_shape	;wreg free
  1535  003BC2                     
  1536                           ;newmain.c: 69:                 for(unsigned short j = 0; j < 2; j++){
  1537  003BC2  0E49               	movlw	low main@forme
  1538  003BC4  6E1C               	movwf	glcd_draw_shape@forme^0,c
  1539  003BC6  0E00               	movlw	high main@forme
  1540  003BC8  6E1D               	movwf	(glcd_draw_shape@forme+1)^0,c
  1541  003BCA  0E01               	movlw	1
  1542  003BCC  6E1E               	movwf	glcd_draw_shape@color^0,c
  1543  003BCE  EC85  F00A         	call	_glcd_draw_shape	;wreg free
  1544  003BD2                     
  1545                           ;newmain.c: 70:                     forme[i][j] = 0;
  1546  003BD2  0100               	movlb	0	; () banked
  1547  003BD4  4BC1               	infsnz	main@x& (0+255),f,b
  1548  003BD6  2BC2               	incf	(main@x+1)& (0+255),f,b
  1549  003BD8                     l4037:
  1550                           
  1551                           ;newmain.c: 72:             }
  1552  003BD8  4A51               	infsnz	main@delay^0,f,c
  1553  003BDA  2A52               	incf	(main@delay+1)^0,f,c
  1554  003BDC                     
  1555                           ;newmain.c: 73:             delay = 0;
  1556  003BDC  505D               	movf	main@formeEnCours^0,w,c
  1557  003BDE  105E               	iorwf	(main@formeEnCours+1)^0,w,c
  1558  003BE0  A4D8               	btfss	status,2,c
  1559  003BE2  EFF5  F01D         	goto	u3141
  1560  003BE6  EFF7  F01D         	goto	u3140
  1561  003BEA                     u3141:
  1562  003BEA  EF1B  F01E         	goto	l4049
  1563  003BEE                     u3140:
  1564  003BEE                     
  1565                           ;newmain.c: 74:             for(unsigned short i = 0; i < 10; i++)
  1566  003BEE  0E00               	movlw	0
  1567  003BF0  0100               	movlb	0	; () banked
  1568  003BF2  6FC2               	movwf	(main@x+1)& (0+255),b
  1569  003BF4  0E00               	movlw	0
  1570  003BF6  6FC1               	movwf	main@x& (0+255),b
  1571  003BF8  0E00               	movlw	0
  1572  003BFA  6FC4               	movwf	(main@y+1)& (0+255),b
  1573  003BFC  0E04               	movlw	4
  1574  003BFE  6FC3               	movwf	main@y& (0+255),b
  1575  003C00                     
  1576                           ; BSR set to: 0
  1577                           ;newmain.c: 75:                     if(tab[0][i] == 1)
  1578  003C00  ECDA  F00E         	call	_rand	;wreg free
  1579  003C04  C019  F023         	movff	?_rand,___awmod@dividend
  1580  003C08  C01A  F024         	movff	?_rand+1,___awmod@dividend+1
  1581  003C0C  0E00               	movlw	0
  1582  003C0E  6E26               	movwf	(___awmod@divisor+1)^0,c
  1583  003C10  0E07               	movlw	7
  1584  003C12  6E25               	movwf	___awmod@divisor^0,c
  1585  003C14  ECF8  F00C         	call	___awmod	;wreg free
  1586  003C18  C023  F0BD         	movff	?___awmod,main@typeForme
  1587  003C1C  C024  F0BE         	movff	?___awmod+1,main@typeForme+1
  1588  003C20                     
  1589                           ;newmain.c: 76:                         verif = 1, points = 0;
  1590  003C20  0E00               	movlw	0
  1591  003C22  0100               	movlb	0	; () banked
  1592  003C24  6FBC               	movwf	(main@position+1)& (0+255),b
  1593  003C26  0E00               	movlw	0
  1594  003C28  6FBB               	movwf	main@position& (0+255),b
  1595  003C2A                     
  1596                           ; BSR set to: 0
  1597                           ;newmain.c: 77:            formeEnCours = 0;
  1598  003C2A  0E00               	movlw	0
  1599  003C2C  6E5E               	movwf	(main@formeEnCours+1)^0,c
  1600  003C2E  0E01               	movlw	1
  1601  003C30  6E5D               	movwf	main@formeEnCours^0,c
  1602                           
  1603                           ;newmain.c: 78:         }else{
  1604  003C32  EF61  F01F         	goto	l4135
  1605  003C36                     l4049:
  1606  003C36  0E00               	movlw	low main@tab
  1607  003C38  6E01               	movwf	checkCollision@tab^0,c
  1608  003C3A  0E01               	movlw	high main@tab
  1609  003C3C  6E02               	movwf	(checkCollision@tab+1)^0,c
  1610  003C3E  0E49               	movlw	low main@forme
  1611  003C40  6E03               	movwf	checkCollision@forme^0,c
  1612  003C42  0E00               	movlw	high main@forme
  1613  003C44  6E04               	movwf	(checkCollision@forme+1)^0,c
  1614  003C46  ECC0  F00F         	call	_checkCollision	;wreg free
  1615  003C4A  5001               	movf	?_checkCollision^0,w,c
  1616  003C4C  1002               	iorwf	(?_checkCollision+1)^0,w,c
  1617  003C4E  B4D8               	btfsc	status,2,c
  1618  003C50  EF2C  F01E         	goto	u3151
  1619  003C54  EF2E  F01E         	goto	u3150
  1620  003C58                     u3151:
  1621  003C58  EF0A  F01F         	goto	l4113
  1622  003C5C                     u3150:
  1623  003C5C                     
  1624                           ;newmain.c: 79:             for(unsigned short i = 0; i < 4; i++){
  1625  003C5C  0E00               	movlw	low main@tab
  1626  003C5E  6E01               	movwf	putPiece@tab^0,c
  1627  003C60  0E01               	movlw	high main@tab
  1628  003C62  6E02               	movwf	(putPiece@tab+1)^0,c
  1629  003C64  0E49               	movlw	low main@forme
  1630  003C66  6E03               	movwf	putPiece@forme^0,c
  1631  003C68  0E00               	movlw	high main@forme
  1632  003C6A  6E04               	movwf	(putPiece@forme+1)^0,c
  1633  003C6C  C0BF  F005         	movff	main@points,putPiece@points
  1634  003C70  C0C0  F006         	movff	main@points+1,putPiece@points+1
  1635  003C74  ECC8  F00B         	call	_putPiece	;wreg free
  1636                           
  1637                           ;newmain.c: 80:                 for(unsigned short j = 0; j < 2; j++){
  1638  003C78  0E3F               	movlw	low main@prevForme
  1639  003C7A  6E1C               	movwf	glcd_draw_shape@forme^0,c
  1640  003C7C  0E00               	movlw	high main@prevForme
  1641  003C7E  6E1D               	movwf	(glcd_draw_shape@forme+1)^0,c
  1642  003C80  0E00               	movlw	0
  1643  003C82  6E1E               	movwf	glcd_draw_shape@color^0,c
  1644  003C84  EC85  F00A         	call	_glcd_draw_shape	;wreg free
  1645                           
  1646                           ;newmain.c: 81:                     prevForme[i][j] = forme[i][j];
  1647  003C88  0E49               	movlw	low main@forme
  1648  003C8A  6E1C               	movwf	glcd_draw_shape@forme^0,c
  1649  003C8C  0E00               	movlw	high main@forme
  1650  003C8E  6E1D               	movwf	(glcd_draw_shape@forme+1)^0,c
  1651  003C90  0E01               	movlw	1
  1652  003C92  6E1E               	movwf	glcd_draw_shape@color^0,c
  1653  003C94  EC85  F00A         	call	_glcd_draw_shape	;wreg free
  1654                           
  1655                           ;newmain.c: 82:                 }
  1656  003C98  0E00               	movlw	low main@tab
  1657  003C9A  6E1C               	movwf	glcd_print_tab@tabAffichage^0,c
  1658  003C9C  0E01               	movlw	high main@tab
  1659  003C9E  6E1D               	movwf	(glcd_print_tab@tabAffichage+1)^0,c
  1660  003CA0  ECAF  F00D         	call	_glcd_print_tab	;wreg free
  1661  003CA4                     
  1662                           ;newmain.c: 83:             }
  1663  003CA4  0E00               	movlw	0
  1664  003CA6  6E54               	movwf	(main@i+1)^0,c
  1665  003CA8  0E00               	movlw	0
  1666  003CAA  6E53               	movwf	main@i^0,c
  1667  003CAC                     l4055:
  1668  003CAC  5054               	movf	(main@i+1)^0,w,c
  1669  003CAE  E109               	bnz	u3160
  1670  003CB0  0E04               	movlw	4
  1671  003CB2  5C53               	subwf	main@i^0,w,c
  1672  003CB4  A0D8               	btfss	status,0,c
  1673  003CB6  EF5F  F01E         	goto	u3161
  1674  003CBA  EF61  F01E         	goto	u3160
  1675  003CBE                     u3161:
  1676  003CBE  EF63  F01E         	goto	l4059
  1677  003CC2                     u3160:
  1678  003CC2  EF93  F01E         	goto	l4075
  1679  003CC6                     l4059:
  1680                           
  1681                           ;newmain.c: 84:         }
  1682  003CC6  0E00               	movlw	0
  1683  003CC8  6E56               	movwf	(main@j+1)^0,c
  1684  003CCA  0E00               	movlw	0
  1685  003CCC  6E55               	movwf	main@j^0,c
  1686  003CCE                     l4061:
  1687  003CCE  5056               	movf	(main@j+1)^0,w,c
  1688  003CD0  E109               	bnz	u3170
  1689  003CD2  0E02               	movlw	2
  1690  003CD4  5C55               	subwf	main@j^0,w,c
  1691  003CD6  A0D8               	btfss	status,0,c
  1692  003CD8  EF70  F01E         	goto	u3171
  1693  003CDC  EF72  F01E         	goto	u3170
  1694  003CE0                     u3171:
  1695  003CE0  EF74  F01E         	goto	l4065
  1696  003CE4                     u3170:
  1697  003CE4  EF8F  F01E         	goto	l4071
  1698  003CE8                     l4065:
  1699                           
  1700                           ;newmain.c: 85:         for(unsigned short line = 0; line < 22; line++)
  1701  003CE8  C053  F037         	movff	main@i,??_main
  1702  003CEC  C054  F038         	movff	main@i+1,??_main+1
  1703  003CF0  90D8               	bcf	status,0,c
  1704  003CF2  3637               	rlcf	??_main^0,f,c
  1705  003CF4  3638               	rlcf	(??_main+1)^0,f,c
  1706  003CF6  0E3F               	movlw	low main@prevForme
  1707  003CF8  6E39               	movwf	(??_main+2)^0,c
  1708  003CFA  0E00               	movlw	high main@prevForme
  1709  003CFC  6E3A               	movwf	(??_main+3)^0,c
  1710  003CFE  5037               	movf	??_main^0,w,c
  1711  003D00  2639               	addwf	(??_main+2)^0,f,c
  1712  003D02  5038               	movf	(??_main+1)^0,w,c
  1713  003D04  223A               	addwfc	(??_main+3)^0,f,c
  1714  003D06  5055               	movf	main@j^0,w,c
  1715  003D08  2439               	addwf	(??_main+2)^0,w,c
  1716  003D0A  6ED9               	movwf	fsr2l,c
  1717  003D0C  5056               	movf	(main@j+1)^0,w,c
  1718  003D0E  203A               	addwfc	(??_main+3)^0,w,c
  1719  003D10  6EDA               	movwf	fsr2h,c
  1720  003D12  0E00               	movlw	0
  1721  003D14  6EDF               	movwf	indf2,c
  1722  003D16                     
  1723                           ;newmain.c: 86:             if(checkLine(tab, line)){
  1724  003D16  4A55               	infsnz	main@j^0,f,c
  1725  003D18  2A56               	incf	(main@j+1)^0,f,c
  1726  003D1A  EF67  F01E         	goto	l4061
  1727  003D1E                     l4071:
  1728                           
  1729                           ;newmain.c: 87:                 eraseLine(tab, line, points);
  1730  003D1E  4A53               	infsnz	main@i^0,f,c
  1731  003D20  2A54               	incf	(main@i+1)^0,f,c
  1732  003D22  EF56  F01E         	goto	l4055
  1733  003D26                     l4075:
  1734                           
  1735                           ;newmain.c: 88:                 points++;
  1736  003D26  0E00               	movlw	0
  1737  003D28  6E58               	movwf	(main@i_274+1)^0,c
  1738  003D2A  0E00               	movlw	0
  1739  003D2C  6E57               	movwf	main@i_274^0,c
  1740  003D2E                     l4077:
  1741  003D2E  5058               	movf	(main@i_274+1)^0,w,c
  1742  003D30  E109               	bnz	u3180
  1743  003D32  0E04               	movlw	4
  1744  003D34  5C57               	subwf	main@i_274^0,w,c
  1745  003D36  A0D8               	btfss	status,0,c
  1746  003D38  EFA0  F01E         	goto	u3181
  1747  003D3C  EFA2  F01E         	goto	u3180
  1748  003D40                     u3181:
  1749  003D40  EFA4  F01E         	goto	l4081
  1750  003D44                     u3180:
  1751  003D44  EFD4  F01E         	goto	l4097
  1752  003D48                     l4081:
  1753                           
  1754                           ;newmain.c: 89:                 glcd_print_tab(tab);
  1755  003D48  0E00               	movlw	0
  1756  003D4A  6E5A               	movwf	(main@j_275+1)^0,c
  1757  003D4C  0E00               	movlw	0
  1758  003D4E  6E59               	movwf	main@j_275^0,c
  1759  003D50                     l4083:
  1760  003D50  505A               	movf	(main@j_275+1)^0,w,c
  1761  003D52  E109               	bnz	u3190
  1762  003D54  0E02               	movlw	2
  1763  003D56  5C59               	subwf	main@j_275^0,w,c
  1764  003D58  A0D8               	btfss	status,0,c
  1765  003D5A  EFB1  F01E         	goto	u3191
  1766  003D5E  EFB3  F01E         	goto	u3190
  1767  003D62                     u3191:
  1768  003D62  EFB5  F01E         	goto	l4087
  1769  003D66                     u3190:
  1770  003D66  EFD0  F01E         	goto	l4093
  1771  003D6A                     l4087:
  1772                           
  1773                           ;newmain.c: 90:             }
  1774  003D6A  C057  F037         	movff	main@i_274,??_main
  1775  003D6E  C058  F038         	movff	main@i_274+1,??_main+1
  1776  003D72  90D8               	bcf	status,0,c
  1777  003D74  3637               	rlcf	??_main^0,f,c
  1778  003D76  3638               	rlcf	(??_main+1)^0,f,c
  1779  003D78  0E49               	movlw	low main@forme
  1780  003D7A  6E39               	movwf	(??_main+2)^0,c
  1781  003D7C  0E00               	movlw	high main@forme
  1782  003D7E  6E3A               	movwf	(??_main+3)^0,c
  1783  003D80  5037               	movf	??_main^0,w,c
  1784  003D82  2639               	addwf	(??_main+2)^0,f,c
  1785  003D84  5038               	movf	(??_main+1)^0,w,c
  1786  003D86  223A               	addwfc	(??_main+3)^0,f,c
  1787  003D88  5059               	movf	main@j_275^0,w,c
  1788  003D8A  2439               	addwf	(??_main+2)^0,w,c
  1789  003D8C  6ED9               	movwf	fsr2l,c
  1790  003D8E  505A               	movf	(main@j_275+1)^0,w,c
  1791  003D90  203A               	addwfc	(??_main+3)^0,w,c
  1792  003D92  6EDA               	movwf	fsr2h,c
  1793  003D94  0E00               	movlw	0
  1794  003D96  6EDF               	movwf	indf2,c
  1795  003D98                     
  1796                           ;newmain.c: 91: 
  1797  003D98  4A59               	infsnz	main@j_275^0,f,c
  1798  003D9A  2A5A               	incf	(main@j_275+1)^0,f,c
  1799  003D9C  EFA8  F01E         	goto	l4083
  1800  003DA0                     l4093:
  1801                           
  1802                           ;newmain.c: 92:         if(points % 2){
  1803  003DA0  4A57               	infsnz	main@i_274^0,f,c
  1804  003DA2  2A58               	incf	(main@i_274+1)^0,f,c
  1805  003DA4  EF97  F01E         	goto	l4077
  1806  003DA8                     l4097:
  1807                           
  1808                           ;newmain.c: 93:             PORTCbits.RC1 = 1;
  1809  003DA8  0E00               	movlw	0
  1810  003DAA  6E52               	movwf	(main@delay+1)^0,c
  1811  003DAC  0E00               	movlw	0
  1812  003DAE  6E51               	movwf	main@delay^0,c
  1813                           
  1814                           ;newmain.c: 94:         }
  1815  003DB0  0E00               	movlw	0
  1816  003DB2  6E5C               	movwf	(main@i_276+1)^0,c
  1817  003DB4  0E00               	movlw	0
  1818  003DB6  6E5B               	movwf	main@i_276^0,c
  1819  003DB8                     l4099:
  1820  003DB8  505C               	movf	(main@i_276+1)^0,w,c
  1821  003DBA  E109               	bnz	u3200
  1822  003DBC  0E0A               	movlw	10
  1823  003DBE  5C5B               	subwf	main@i_276^0,w,c
  1824  003DC0  A0D8               	btfss	status,0,c
  1825  003DC2  EFE5  F01E         	goto	u3201
  1826  003DC6  EFE7  F01E         	goto	u3200
  1827  003DCA                     u3201:
  1828  003DCA  EFE9  F01E         	goto	l4103
  1829  003DCE                     u3200:
  1830  003DCE  EF04  F01F         	goto	l4111
  1831  003DD2                     l4103:
  1832                           
  1833                           ;newmain.c: 95:         else PORTCbits.RC1 = 0;
  1834  003DD2  0E00               	movlw	low main@tab
  1835  003DD4  245B               	addwf	main@i_276^0,w,c
  1836  003DD6  6ED9               	movwf	fsr2l,c
  1837  003DD8  0E01               	movlw	high main@tab
  1838  003DDA  205C               	addwfc	(main@i_276+1)^0,w,c
  1839  003DDC  6EDA               	movwf	fsr2h,c
  1840  003DDE  04DE               	decf	postinc2,w,c
  1841  003DE0  A4D8               	btfss	status,2,c
  1842  003DE2  EFF5  F01E         	goto	u3211
  1843  003DE6  EFF7  F01E         	goto	u3210
  1844  003DEA                     u3211:
  1845  003DEA  EF00  F01F         	goto	l4107
  1846  003DEE                     u3210:
  1847  003DEE                     
  1848                           ;newmain.c: 96:         if(points == 2 || points == 6 || points == 7){
  1849  003DEE  0E00               	movlw	0
  1850  003DF0  6E48               	movwf	(main@verif+1)^0,c
  1851  003DF2  0E01               	movlw	1
  1852  003DF4  6E47               	movwf	main@verif^0,c
  1853  003DF6  0E00               	movlw	0
  1854  003DF8  0100               	movlb	0	; () banked
  1855  003DFA  6FC0               	movwf	(main@points+1)& (0+255),b
  1856  003DFC  0E00               	movlw	0
  1857  003DFE  6FBF               	movwf	main@points& (0+255),b
  1858  003E00                     l4107:
  1859  003E00  4A5B               	infsnz	main@i_276^0,f,c
  1860  003E02  2A5C               	incf	(main@i_276+1)^0,f,c
  1861  003E04  EFDC  F01E         	goto	l4099
  1862  003E08                     l4111:
  1863                           
  1864                           ;newmain.c: 97:             PORTCbits.RC2 = 1;
  1865  003E08  0E00               	movlw	0
  1866  003E0A  6E5E               	movwf	(main@formeEnCours+1)^0,c
  1867  003E0C  0E00               	movlw	0
  1868  003E0E  6E5D               	movwf	main@formeEnCours^0,c
  1869                           
  1870                           ;newmain.c: 98:         }else PORTCbits.RC2 = 0;
  1871  003E10  EF61  F01F         	goto	l4135
  1872  003E14                     l4113:
  1873                           
  1874                           ;newmain.c: 99:         if(points == 6 || points == 7){
  1875  003E14  0E00               	movlw	0
  1876  003E16  0100               	movlb	0	; () banked
  1877  003E18  6FB6               	movwf	(main@i_277+1)& (0+255),b
  1878  003E1A  0E00               	movlw	0
  1879  003E1C  6FB5               	movwf	main@i_277& (0+255),b
  1880  003E1E                     l4115:
  1881                           
  1882                           ; BSR set to: 0
  1883  003E1E  51B6               	movf	(main@i_277+1)& (0+255),w,b
  1884  003E20  E109               	bnz	u3220
  1885  003E22  0E04               	movlw	4
  1886  003E24  5DB5               	subwf	main@i_277& (0+255),w,b
  1887  003E26  A0D8               	btfss	status,0,c
  1888  003E28  EF18  F01F         	goto	u3221
  1889  003E2C  EF1A  F01F         	goto	u3220
  1890  003E30                     u3221:
  1891  003E30  EF1C  F01F         	goto	l4119
  1892  003E34                     u3220:
  1893  003E34  EF61  F01F         	goto	l4135
  1894  003E38                     l4119:
  1895                           
  1896                           ; BSR set to: 0
  1897                           ;newmain.c: 100:             PORTCbits.RC5 = 1;
  1898  003E38  0E00               	movlw	0
  1899  003E3A  6FB8               	movwf	(main@j_278+1)& (0+255),b
  1900  003E3C  0E00               	movlw	0
  1901  003E3E  6FB7               	movwf	main@j_278& (0+255),b
  1902  003E40                     l4121:
  1903                           
  1904                           ; BSR set to: 0
  1905  003E40  51B8               	movf	(main@j_278+1)& (0+255),w,b
  1906  003E42  E109               	bnz	u3230
  1907  003E44  0E02               	movlw	2
  1908  003E46  5DB7               	subwf	main@j_278& (0+255),w,b
  1909  003E48  A0D8               	btfss	status,0,c
  1910  003E4A  EF29  F01F         	goto	u3231
  1911  003E4E  EF2B  F01F         	goto	u3230
  1912  003E52                     u3231:
  1913  003E52  EF2D  F01F         	goto	l4125
  1914  003E56                     u3230:
  1915  003E56  EF5D  F01F         	goto	l4131
  1916  003E5A                     l4125:
  1917                           
  1918                           ; BSR set to: 0
  1919                           ;newmain.c: 101:         }else PORTCbits.RC5 = 0;
  1920  003E5A  C0B5  F037         	movff	main@i_277,??_main
  1921  003E5E  C0B6  F038         	movff	main@i_277+1,??_main+1
  1922  003E62  90D8               	bcf	status,0,c
  1923  003E64  3637               	rlcf	??_main^0,f,c
  1924  003E66  3638               	rlcf	(??_main+1)^0,f,c
  1925  003E68  0E49               	movlw	low main@forme
  1926  003E6A  6E39               	movwf	(??_main+2)^0,c
  1927  003E6C  0E00               	movlw	high main@forme
  1928  003E6E  6E3A               	movwf	(??_main+3)^0,c
  1929  003E70  5037               	movf	??_main^0,w,c
  1930  003E72  2639               	addwf	(??_main+2)^0,f,c
  1931  003E74  5038               	movf	(??_main+1)^0,w,c
  1932  003E76  223A               	addwfc	(??_main+3)^0,f,c
  1933  003E78  51B7               	movf	main@j_278& (0+255),w,b
  1934  003E7A  2439               	addwf	(??_main+2)^0,w,c
  1935  003E7C  6ED9               	movwf	fsr2l,c
  1936  003E7E  51B8               	movf	(main@j_278+1)& (0+255),w,b
  1937  003E80  203A               	addwfc	(??_main+3)^0,w,c
  1938  003E82  6EDA               	movwf	fsr2h,c
  1939  003E84  C0B5  F03B         	movff	main@i_277,??_main+4
  1940  003E88  C0B6  F03C         	movff	main@i_277+1,??_main+5
  1941  003E8C  90D8               	bcf	status,0,c
  1942  003E8E  363B               	rlcf	(??_main+4)^0,f,c
  1943  003E90  363C               	rlcf	(??_main+5)^0,f,c
  1944  003E92  0E3F               	movlw	low main@prevForme
  1945  003E94  6E3D               	movwf	(??_main+6)^0,c
  1946  003E96  0E00               	movlw	high main@prevForme
  1947  003E98  6E3E               	movwf	(??_main+7)^0,c
  1948  003E9A  503B               	movf	(??_main+4)^0,w,c
  1949  003E9C  263D               	addwf	(??_main+6)^0,f,c
  1950  003E9E  503C               	movf	(??_main+5)^0,w,c
  1951  003EA0  223E               	addwfc	(??_main+7)^0,f,c
  1952  003EA2  51B7               	movf	main@j_278& (0+255),w,b
  1953  003EA4  243D               	addwf	(??_main+6)^0,w,c
  1954  003EA6  6EE1               	movwf	fsr1l,c
  1955  003EA8  51B8               	movf	(main@j_278+1)& (0+255),w,b
  1956  003EAA  203E               	addwfc	(??_main+7)^0,w,c
  1957  003EAC  6EE2               	movwf	fsr1h,c
  1958  003EAE  CFDF FFE7          	movff	indf2,indf1
  1959  003EB2                     
  1960                           ; BSR set to: 0
  1961                           ;newmain.c: 102:  }
  1962  003EB2  4BB7               	infsnz	main@j_278& (0+255),f,b
  1963  003EB4  2BB8               	incf	(main@j_278+1)& (0+255),f,b
  1964  003EB6  EF20  F01F         	goto	l4121
  1965  003EBA                     l4131:
  1966                           
  1967                           ; BSR set to: 0
  1968                           ;newmain.c: 103: 
  1969  003EBA  4BB5               	infsnz	main@i_277& (0+255),f,b
  1970  003EBC  2BB6               	incf	(main@i_277+1)& (0+255),f,b
  1971  003EBE  EF0F  F01F         	goto	l4115
  1972  003EC2                     l4135:
  1973                           
  1974                           ;newmain.c: 105: 
  1975  003EC2  0E00               	movlw	0
  1976  003EC4  0100               	movlb	0	; () banked
  1977  003EC6  6FBA               	movwf	(main@line+1)& (0+255),b
  1978  003EC8  0E00               	movlw	0
  1979  003ECA  6FB9               	movwf	main@line& (0+255),b
  1980  003ECC                     l4137:
  1981                           
  1982                           ; BSR set to: 0
  1983  003ECC  51BA               	movf	(main@line+1)& (0+255),w,b
  1984  003ECE  E109               	bnz	u3240
  1985  003ED0  0E16               	movlw	22
  1986  003ED2  5DB9               	subwf	main@line& (0+255),w,b
  1987  003ED4  A0D8               	btfss	status,0,c
  1988  003ED6  EF6F  F01F         	goto	u3241
  1989  003EDA  EF71  F01F         	goto	u3240
  1990  003EDE                     u3241:
  1991  003EDE  EF73  F01F         	goto	l4141
  1992  003EE2                     u3240:
  1993  003EE2  EFA2  F01F         	goto	l97
  1994  003EE6                     l4141:
  1995                           
  1996                           ; BSR set to: 0
  1997                           ;newmain.c: 106: 
  1998  003EE6  0E00               	movlw	low main@tab
  1999  003EE8  6E07               	movwf	checkLine@tab^0,c
  2000  003EEA  0E01               	movlw	high main@tab
  2001  003EEC  6E08               	movwf	(checkLine@tab+1)^0,c
  2002  003EEE  C0B9  F009         	movff	main@line,checkLine@line
  2003  003EF2  C0BA  F00A         	movff	main@line+1,checkLine@line+1
  2004  003EF6  EC0E  F00C         	call	_checkLine	;wreg free
  2005  003EFA  5007               	movf	?_checkLine^0,w,c
  2006  003EFC  1008               	iorwf	(?_checkLine+1)^0,w,c
  2007  003EFE  B4D8               	btfsc	status,2,c
  2008  003F00  EF84  F01F         	goto	u3251
  2009  003F04  EF86  F01F         	goto	u3250
  2010  003F08                     u3251:
  2011  003F08  EF9D  F01F         	goto	l4149
  2012  003F0C                     u3250:
  2013  003F0C                     
  2014                           ;newmain.c: 107:     PORTCbits.RC0 = 0;
  2015  003F0C  0E00               	movlw	low main@tab
  2016  003F0E  6E07               	movwf	eraseLine@tab^0,c
  2017  003F10  0E01               	movlw	high main@tab
  2018  003F12  6E08               	movwf	(eraseLine@tab+1)^0,c
  2019  003F14  C0B9  F009         	movff	main@line,eraseLine@line
  2020  003F18  C0BA  F00A         	movff	main@line+1,eraseLine@line+1
  2021  003F1C  C0BF  F00B         	movff	main@points,eraseLine@points
  2022  003F20  C0C0  F00C         	movff	main@points+1,eraseLine@points+1
  2023  003F24  EC49  F00F         	call	_eraseLine	;wreg free
  2024  003F28                     
  2025                           ;newmain.c: 108:     _delay((unsigned long)((200000)*(8000000/4000000.0)));
  2026  003F28  0100               	movlb	0	; () banked
  2027  003F2A  4BBF               	infsnz	main@points& (0+255),f,b
  2028  003F2C  2BC0               	incf	(main@points+1)& (0+255),f,b
  2029  003F2E                     
  2030                           ; BSR set to: 0
  2031                           ;newmain.c: 109:     PORTCbits.RC0 = 1;
  2032  003F2E  0E00               	movlw	low main@tab
  2033  003F30  6E1C               	movwf	glcd_print_tab@tabAffichage^0,c
  2034  003F32  0E01               	movlw	high main@tab
  2035  003F34  6E1D               	movwf	(glcd_print_tab@tabAffichage+1)^0,c
  2036  003F36  ECAF  F00D         	call	_glcd_print_tab	;wreg free
  2037  003F3A                     l4149:
  2038  003F3A  0100               	movlb	0	; () banked
  2039  003F3C  4BB9               	infsnz	main@line& (0+255),f,b
  2040  003F3E  2BBA               	incf	(main@line+1)& (0+255),f,b
  2041  003F40  EF66  F01F         	goto	l4137
  2042  003F44                     l97:
  2043                           
  2044                           ; BSR set to: 0
  2045                           ;newmain.c: 112: 
  2046  003F44  A1BF               	btfss	main@points& (0+255),0,b
  2047  003F46  EFA7  F01F         	goto	u3261
  2048  003F4A  EFA9  F01F         	goto	u3260
  2049  003F4E                     u3261:
  2050  003F4E  EFAC  F01F         	goto	l99
  2051  003F52                     u3260:
  2052  003F52                     
  2053                           ; BSR set to: 0
  2054                           ;newmain.c: 113: 
  2055  003F52  8282               	bsf	130,1,c	;volatile
  2056                           
  2057                           ;newmain.c: 114: 
  2058  003F54  EFAD  F01F         	goto	l4155
  2059  003F58                     l99:
  2060                           
  2061                           ; BSR set to: 0
  2062  003F58  9282               	bcf	130,1,c	;volatile
  2063  003F5A                     l4155:
  2064                           
  2065                           ; BSR set to: 0
  2066                           ;newmain.c: 116: {
  2067  003F5A  0E02               	movlw	2
  2068  003F5C  19BF               	xorwf	main@points& (0+255),w,b
  2069  003F5E  11C0               	iorwf	(main@points+1)& (0+255),w,b
  2070  003F60  B4D8               	btfsc	status,2,c
  2071  003F62  EFB5  F01F         	goto	u3271
  2072  003F66  EFB7  F01F         	goto	u3270
  2073  003F6A                     u3271:
  2074  003F6A  EFCB  F01F         	goto	l103
  2075  003F6E                     u3270:
  2076  003F6E                     
  2077                           ; BSR set to: 0
  2078  003F6E  0E06               	movlw	6
  2079  003F70  19BF               	xorwf	main@points& (0+255),w,b
  2080  003F72  11C0               	iorwf	(main@points+1)& (0+255),w,b
  2081  003F74  B4D8               	btfsc	status,2,c
  2082  003F76  EFBF  F01F         	goto	u3281
  2083  003F7A  EFC1  F01F         	goto	u3280
  2084  003F7E                     u3281:
  2085  003F7E  EFCB  F01F         	goto	l103
  2086  003F82                     u3280:
  2087  003F82                     
  2088                           ; BSR set to: 0
  2089  003F82  0E07               	movlw	7
  2090  003F84  19BF               	xorwf	main@points& (0+255),w,b
  2091  003F86  11C0               	iorwf	(main@points+1)& (0+255),w,b
  2092  003F88  A4D8               	btfss	status,2,c
  2093  003F8A  EFC9  F01F         	goto	u3291
  2094  003F8E  EFCB  F01F         	goto	u3290
  2095  003F92                     u3291:
  2096  003F92  EFCE  F01F         	goto	l101
  2097  003F96                     u3290:
  2098  003F96                     l103:
  2099                           
  2100                           ; BSR set to: 0
  2101                           ;newmain.c: 117:     int fin = 0;
  2102  003F96  8482               	bsf	130,2,c	;volatile
  2103                           
  2104                           ;newmain.c: 118:     glcd_FillScreen(0);
  2105  003F98  EFCF  F01F         	goto	l4161
  2106  003F9C                     l101:
  2107                           
  2108                           ; BSR set to: 0
  2109  003F9C  9482               	bcf	130,2,c	;volatile
  2110  003F9E                     l4161:
  2111                           
  2112                           ; BSR set to: 0
  2113                           ;newmain.c: 119: 
  2114  003F9E  0E06               	movlw	6
  2115  003FA0  19BF               	xorwf	main@points& (0+255),w,b
  2116  003FA2  11C0               	iorwf	(main@points+1)& (0+255),w,b
  2117  003FA4  B4D8               	btfsc	status,2,c
  2118  003FA6  EFD7  F01F         	goto	u3301
  2119  003FAA  EFD9  F01F         	goto	u3300
  2120  003FAE                     u3301:
  2121  003FAE  EFE3  F01F         	goto	l107
  2122  003FB2                     u3300:
  2123  003FB2                     
  2124                           ; BSR set to: 0
  2125  003FB2  0E07               	movlw	7
  2126  003FB4  19BF               	xorwf	main@points& (0+255),w,b
  2127  003FB6  11C0               	iorwf	(main@points+1)& (0+255),w,b
  2128  003FB8  A4D8               	btfss	status,2,c
  2129  003FBA  EFE1  F01F         	goto	u3311
  2130  003FBE  EFE3  F01F         	goto	u3310
  2131  003FC2                     u3311:
  2132  003FC2  EFE6  F01F         	goto	l105
  2133  003FC6                     u3310:
  2134  003FC6                     l107:
  2135                           
  2136                           ; BSR set to: 0
  2137                           ;newmain.c: 120:      affMenu();
  2138  003FC6  8A82               	bsf	130,5,c	;volatile
  2139                           
  2140                           ;newmain.c: 121: 
  2141  003FC8  EFE7  F01F         	goto	l4165
  2142  003FCC                     l105:
  2143                           
  2144                           ; BSR set to: 0
  2145  003FCC  9A82               	bcf	130,5,c	;volatile
  2146  003FCE                     l4165:
  2147                           
  2148                           ;newmain.c: 51:         }
  2149  003FCE  5047               	movf	main@verif^0,w,c
  2150  003FD0  1048               	iorwf	(main@verif+1)^0,w,c
  2151  003FD2  B4D8               	btfsc	status,2,c
  2152  003FD4  EFEE  F01F         	goto	u3321
  2153  003FD8  EFF0  F01F         	goto	u3320
  2154  003FDC                     u3321:
  2155  003FDC  EF89  F01B         	goto	l3955
  2156  003FE0                     u3320:
  2157  003FE0                     
  2158                           ;newmain.c: 127:             menuTetris();
  2159  003FE0  9082               	bcf	130,0,c	;volatile
  2160  003FE2                     
  2161                           ;newmain.c: 128:             _delay((unsigned long)((2000000)*(8000000/4000000.0)));
  2162  003FE2  0E03               	movlw	3
  2163  003FE4  6E38               	movwf	(??_main+1)^0,c
  2164  003FE6  0E08               	movlw	8
  2165  003FE8  6E37               	movwf	??_main^0,c
  2166  003FEA  0E77               	movlw	119
  2167  003FEC                     u3437:
  2168  003FEC  2EE8               	decfsz	wreg,f,c
  2169  003FEE  D7FE               	bra	u3437
  2170  003FF0  2E37               	decfsz	??_main^0,f,c
  2171  003FF2  D7FC               	bra	u3437
  2172  003FF4  2E38               	decfsz	(??_main+1)^0,f,c
  2173  003FF6  D7FA               	bra	u3437
  2174  003FF8  F000               	nop	
  2175  003FFA                     
  2176                           ;newmain.c: 129:             affMenu();
  2177  003FFA  8082               	bsf	130,0,c	;volatile
  2178  003FFC  EF00  F000         	goto	start
  2179  004000                     __end_of_main:
  2180                           	opt callstack 0
  2181                           
  2182 ;; *************** function _transformForm *****************
  2183 ;; Defined at:
  2184 ;;		line 72 in file "../V3.X/formes.c"
  2185 ;; Parameters:    Size  Location     Type
  2186 ;;  forme           2    0[COMRAM] PTR unsigned char [2]
  2187 ;;		 -> main@forme(8), 
  2188 ;;  x               2    2[COMRAM] unsigned short 
  2189 ;;  y               2    4[COMRAM] unsigned short 
  2190 ;;  position        2    6[COMRAM] unsigned short 
  2191 ;; Auto vars:     Size  Location     Type
  2192 ;;  j               2   46[COMRAM] unsigned short 
  2193 ;;  j               2   42[COMRAM] unsigned short 
  2194 ;;  j               2   38[COMRAM] unsigned short 
  2195 ;;  j               2   34[COMRAM] unsigned short 
  2196 ;;  j               2   50[COMRAM] unsigned short 
  2197 ;;  i               2   44[COMRAM] unsigned short 
  2198 ;;  i               2   40[COMRAM] unsigned short 
  2199 ;;  i               2   36[COMRAM] unsigned short 
  2200 ;;  i               2   32[COMRAM] unsigned short 
  2201 ;;  i               2   48[COMRAM] unsigned short 
  2202 ;;  newForme       16   16[COMRAM] unsigned short [2][4]
  2203 ;;  a               2   52[COMRAM] unsigned short 
  2204 ;; Return value:  Size  Location     Type
  2205 ;;                  1    wreg      void 
  2206 ;; Registers used:
  2207 ;;		wreg, fsr1l, fsr1h, fsr2l, fsr2h, status,2, status,0
  2208 ;; Tracked objects:
  2209 ;;		On entry : 0/0
  2210 ;;		On exit  : 0/0
  2211 ;;		Unchanged: 0/0
  2212 ;; Data sizes:     COMRAM   BANK0   BANK1   BANK4
  2213 ;;      Params:         8       0       0       0
  2214 ;;      Locals:        38       0       0       0
  2215 ;;      Temps:          8       0       0       0
  2216 ;;      Totals:        54       0       0       0
  2217 ;;Total ram usage:       54 bytes
  2218 ;; Hardware stack levels used:    1
  2219 ;; This function calls:
  2220 ;;		Nothing
  2221 ;; This function is called by:
  2222 ;;		_main
  2223 ;; This function uses a non-reentrant model
  2224 ;;
  2225                           
  2226                           	psect	text1
  2227  00227E                     __ptext1:
  2228                           	opt callstack 0
  2229  00227E                     _transformForm:
  2230                           	opt callstack 30
  2231  00227E                     
  2232                           ;../V3.X/formes.c: 73:  unsigned short newForme[4][2] = {0};
  2233  00227E  EE20  F011         	lfsr	2,transformForm@newForme
  2234  002282  0E0F               	movlw	15
  2235  002284                     u2461:
  2236  002284  6ADE               	clrf	postinc2,c
  2237  002286  06E8               	decf	wreg,f,c
  2238  002288  E2FD               	bc	u2461
  2239  00228A                     
  2240                           ;../V3.X/formes.c: 74:  unsigned short a = 0;
  2241  00228A  0E00               	movlw	0
  2242  00228C  6E36               	movwf	(transformForm@a+1)^0,c
  2243  00228E  0E00               	movlw	0
  2244  002290  6E35               	movwf	transformForm@a^0,c
  2245                           
  2246                           ;../V3.X/formes.c: 75:  switch(position){
  2247  002292  EF47  F013         	goto	l3685
  2248  002296                     l3579:
  2249                           
  2250                           ;../V3.X/formes.c: 77:    for(unsigned short i = 0; i < 4; i++){
  2251  002296  0E00               	movlw	0
  2252  002298  6E22               	movwf	(transformForm@i+1)^0,c
  2253  00229A  0E00               	movlw	0
  2254  00229C  6E21               	movwf	transformForm@i^0,c
  2255  00229E                     l3585:
  2256                           
  2257                           ;../V3.X/formes.c: 78:     for(unsigned short j = 0; j < 2; j++){
  2258  00229E  0E00               	movlw	0
  2259  0022A0  6E24               	movwf	(transformForm@j+1)^0,c
  2260  0022A2  0E00               	movlw	0
  2261  0022A4  6E23               	movwf	transformForm@j^0,c
  2262  0022A6                     l3591:
  2263                           
  2264                           ;../V3.X/formes.c: 79:      if(forme[i][j] == 1){
  2265  0022A6  C021  F009         	movff	transformForm@i,??_transformForm
  2266  0022AA  C022  F00A         	movff	transformForm@i+1,??_transformForm+1
  2267  0022AE  90D8               	bcf	status,0,c
  2268  0022B0  3609               	rlcf	??_transformForm^0,f,c
  2269  0022B2  360A               	rlcf	(??_transformForm+1)^0,f,c
  2270  0022B4  C001  F00B         	movff	transformForm@forme,??_transformForm+2
  2271  0022B8  C002  F00C         	movff	transformForm@forme+1,??_transformForm+3
  2272  0022BC  5009               	movf	??_transformForm^0,w,c
  2273  0022BE  260B               	addwf	(??_transformForm+2)^0,f,c
  2274  0022C0  500A               	movf	(??_transformForm+1)^0,w,c
  2275  0022C2  220C               	addwfc	(??_transformForm+3)^0,f,c
  2276  0022C4  5023               	movf	transformForm@j^0,w,c
  2277  0022C6  240B               	addwf	(??_transformForm+2)^0,w,c
  2278  0022C8  6ED9               	movwf	fsr2l,c
  2279  0022CA  5024               	movf	(transformForm@j+1)^0,w,c
  2280  0022CC  200C               	addwfc	(??_transformForm+3)^0,w,c
  2281  0022CE  6EDA               	movwf	fsr2h,c
  2282  0022D0  04DE               	decf	postinc2,w,c
  2283  0022D2  A4D8               	btfss	status,2,c
  2284  0022D4  EF6E  F011         	goto	u2471
  2285  0022D8  EF70  F011         	goto	u2470
  2286  0022DC                     u2471:
  2287  0022DC  EFAA  F011         	goto	l3597
  2288  0022E0                     u2470:
  2289  0022E0                     
  2290                           ;../V3.X/formes.c: 80:       newForme[a][0] = i+x;
  2291  0022E0  5003               	movf	transformForm@x^0,w,c
  2292  0022E2  2421               	addwf	transformForm@i^0,w,c
  2293  0022E4  6E09               	movwf	??_transformForm^0,c
  2294  0022E6  5004               	movf	(transformForm@x+1)^0,w,c
  2295  0022E8  2022               	addwfc	(transformForm@i+1)^0,w,c
  2296  0022EA  6E0A               	movwf	(??_transformForm+1)^0,c
  2297  0022EC  0E11               	movlw	low transformForm@newForme
  2298  0022EE  6E0B               	movwf	(??_transformForm+2)^0,c
  2299  0022F0  0E00               	movlw	high transformForm@newForme
  2300  0022F2  6E0C               	movwf	(??_transformForm+3)^0,c
  2301  0022F4  90D8               	bcf	status,0,c
  2302  0022F6  3435               	rlcf	transformForm@a^0,w,c
  2303  0022F8  6ED9               	movwf	fsr2l,c
  2304  0022FA  3436               	rlcf	(transformForm@a+1)^0,w,c
  2305  0022FC  6EDA               	movwf	fsr2h,c
  2306  0022FE  90D8               	bcf	status,0,c
  2307  002300  36D9               	rlcf	fsr2l,f,c
  2308  002302  36DA               	rlcf	fsr2h,f,c
  2309  002304  500B               	movf	(??_transformForm+2)^0,w,c
  2310  002306  26D9               	addwf	fsr2l,f,c
  2311  002308  500C               	movf	(??_transformForm+3)^0,w,c
  2312  00230A  22DA               	addwfc	fsr2h,f,c
  2313  00230C  C009  FFDE         	movff	??_transformForm,postinc2
  2314  002310  C00A  FFDD         	movff	??_transformForm+1,postdec2
  2315                           
  2316                           ;../V3.X/formes.c: 81:       newForme[a][1] = j+y;
  2317  002314  5005               	movf	transformForm@y^0,w,c
  2318  002316  2423               	addwf	transformForm@j^0,w,c
  2319  002318  6E09               	movwf	??_transformForm^0,c
  2320  00231A  5006               	movf	(transformForm@y+1)^0,w,c
  2321  00231C  2024               	addwfc	(transformForm@j+1)^0,w,c
  2322  00231E  6E0A               	movwf	(??_transformForm+1)^0,c
  2323  002320  C035  F00B         	movff	transformForm@a,??_transformForm+2
  2324  002324  C036  F00C         	movff	transformForm@a+1,??_transformForm+3
  2325  002328  90D8               	bcf	status,0,c
  2326  00232A  360B               	rlcf	(??_transformForm+2)^0,f,c
  2327  00232C  360C               	rlcf	(??_transformForm+3)^0,f,c
  2328  00232E  90D8               	bcf	status,0,c
  2329  002330  360B               	rlcf	(??_transformForm+2)^0,f,c
  2330  002332  360C               	rlcf	(??_transformForm+3)^0,f,c
  2331  002334  0E02               	movlw	2
  2332  002336  260B               	addwf	(??_transformForm+2)^0,f,c
  2333  002338  0E00               	movlw	0
  2334  00233A  220C               	addwfc	(??_transformForm+3)^0,f,c
  2335  00233C  0E11               	movlw	low transformForm@newForme
  2336  00233E  240B               	addwf	(??_transformForm+2)^0,w,c
  2337  002340  6ED9               	movwf	fsr2l,c
  2338  002342  0E00               	movlw	high transformForm@newForme
  2339  002344  200C               	addwfc	(??_transformForm+3)^0,w,c
  2340  002346  6EDA               	movwf	fsr2h,c
  2341  002348  C009  FFDE         	movff	??_transformForm,postinc2
  2342  00234C  C00A  FFDD         	movff	??_transformForm+1,postdec2
  2343  002350                     
  2344                           ;../V3.X/formes.c: 82:       a++;
  2345  002350  4A35               	infsnz	transformForm@a^0,f,c
  2346  002352  2A36               	incf	(transformForm@a+1)^0,f,c
  2347  002354                     l3597:
  2348                           
  2349                           ;../V3.X/formes.c: 84:     }
  2350  002354  4A23               	infsnz	transformForm@j^0,f,c
  2351  002356  2A24               	incf	(transformForm@j+1)^0,f,c
  2352  002358  5024               	movf	(transformForm@j+1)^0,w,c
  2353  00235A  E109               	bnz	u2480
  2354  00235C  0E02               	movlw	2
  2355  00235E  5C23               	subwf	transformForm@j^0,w,c
  2356  002360  A0D8               	btfss	status,0,c
  2357  002362  EFB5  F011         	goto	u2481
  2358  002366  EFB7  F011         	goto	u2480
  2359  00236A                     u2481:
  2360  00236A  EF53  F011         	goto	l3591
  2361  00236E                     u2480:
  2362  00236E                     
  2363                           ;../V3.X/formes.c: 85:    }
  2364  00236E  4A21               	infsnz	transformForm@i^0,f,c
  2365  002370  2A22               	incf	(transformForm@i+1)^0,f,c
  2366  002372  5022               	movf	(transformForm@i+1)^0,w,c
  2367  002374  E109               	bnz	u2490
  2368  002376  0E04               	movlw	4
  2369  002378  5C21               	subwf	transformForm@i^0,w,c
  2370  00237A  A0D8               	btfss	status,0,c
  2371  00237C  EFC2  F011         	goto	u2491
  2372  002380  EFC4  F011         	goto	u2490
  2373  002384                     u2491:
  2374  002384  EF4F  F011         	goto	l3585
  2375  002388                     u2490:
  2376  002388  EF65  F013         	goto	l3687
  2377  00238C                     l3605:
  2378                           
  2379                           ;../V3.X/formes.c: 88:    for(unsigned short i = 0; i < 4; i++){
  2380  00238C  0E00               	movlw	0
  2381  00238E  6E26               	movwf	(transformForm@i_353+1)^0,c
  2382  002390  0E00               	movlw	0
  2383  002392  6E25               	movwf	transformForm@i_353^0,c
  2384  002394                     l3611:
  2385                           
  2386                           ;../V3.X/formes.c: 89:     for(unsigned short j = 0; j < 2; j++){
  2387  002394  0E00               	movlw	0
  2388  002396  6E28               	movwf	(transformForm@j_354+1)^0,c
  2389  002398  0E00               	movlw	0
  2390  00239A  6E27               	movwf	transformForm@j_354^0,c
  2391  00239C                     l3617:
  2392                           
  2393                           ;../V3.X/formes.c: 90:      if(forme[i][j] == 1){
  2394  00239C  C025  F009         	movff	transformForm@i_353,??_transformForm
  2395  0023A0  C026  F00A         	movff	transformForm@i_353+1,??_transformForm+1
  2396  0023A4  90D8               	bcf	status,0,c
  2397  0023A6  3609               	rlcf	??_transformForm^0,f,c
  2398  0023A8  360A               	rlcf	(??_transformForm+1)^0,f,c
  2399  0023AA  C001  F00B         	movff	transformForm@forme,??_transformForm+2
  2400  0023AE  C002  F00C         	movff	transformForm@forme+1,??_transformForm+3
  2401  0023B2  5009               	movf	??_transformForm^0,w,c
  2402  0023B4  260B               	addwf	(??_transformForm+2)^0,f,c
  2403  0023B6  500A               	movf	(??_transformForm+1)^0,w,c
  2404  0023B8  220C               	addwfc	(??_transformForm+3)^0,f,c
  2405  0023BA  5027               	movf	transformForm@j_354^0,w,c
  2406  0023BC  240B               	addwf	(??_transformForm+2)^0,w,c
  2407  0023BE  6ED9               	movwf	fsr2l,c
  2408  0023C0  5028               	movf	(transformForm@j_354+1)^0,w,c
  2409  0023C2  200C               	addwfc	(??_transformForm+3)^0,w,c
  2410  0023C4  6EDA               	movwf	fsr2h,c
  2411  0023C6  04DE               	decf	postinc2,w,c
  2412  0023C8  A4D8               	btfss	status,2,c
  2413  0023CA  EFE9  F011         	goto	u2501
  2414  0023CE  EFEB  F011         	goto	u2500
  2415  0023D2                     u2501:
  2416  0023D2  EF29  F012         	goto	l3623
  2417  0023D6                     u2500:
  2418  0023D6                     
  2419                           ;../V3.X/formes.c: 91:       newForme[a][0] = 1-j+x;
  2420  0023D6  5027               	movf	transformForm@j_354^0,w,c
  2421  0023D8  5C03               	subwf	transformForm@x^0,w,c
  2422  0023DA  6E09               	movwf	??_transformForm^0,c
  2423  0023DC  5028               	movf	(transformForm@j_354+1)^0,w,c
  2424  0023DE  5804               	subwfb	(transformForm@x+1)^0,w,c
  2425  0023E0  6E0A               	movwf	(??_transformForm+1)^0,c
  2426  0023E2  0E01               	movlw	1
  2427  0023E4  2609               	addwf	??_transformForm^0,f,c
  2428  0023E6  0E00               	movlw	0
  2429  0023E8  220A               	addwfc	(??_transformForm+1)^0,f,c
  2430  0023EA  0E11               	movlw	low transformForm@newForme
  2431  0023EC  6E0B               	movwf	(??_transformForm+2)^0,c
  2432  0023EE  0E00               	movlw	high transformForm@newForme
  2433  0023F0  6E0C               	movwf	(??_transformForm+3)^0,c
  2434  0023F2  90D8               	bcf	status,0,c
  2435  0023F4  3435               	rlcf	transformForm@a^0,w,c
  2436  0023F6  6ED9               	movwf	fsr2l,c
  2437  0023F8  3436               	rlcf	(transformForm@a+1)^0,w,c
  2438  0023FA  6EDA               	movwf	fsr2h,c
  2439  0023FC  90D8               	bcf	status,0,c
  2440  0023FE  36D9               	rlcf	fsr2l,f,c
  2441  002400  36DA               	rlcf	fsr2h,f,c
  2442  002402  500B               	movf	(??_transformForm+2)^0,w,c
  2443  002404  26D9               	addwf	fsr2l,f,c
  2444  002406  500C               	movf	(??_transformForm+3)^0,w,c
  2445  002408  22DA               	addwfc	fsr2h,f,c
  2446  00240A  C009  FFDE         	movff	??_transformForm,postinc2
  2447  00240E  C00A  FFDD         	movff	??_transformForm+1,postdec2
  2448                           
  2449                           ;../V3.X/formes.c: 92:       newForme[a][1] = i+y;
  2450  002412  5005               	movf	transformForm@y^0,w,c
  2451  002414  2425               	addwf	transformForm@i_353^0,w,c
  2452  002416  6E09               	movwf	??_transformForm^0,c
  2453  002418  5006               	movf	(transformForm@y+1)^0,w,c
  2454  00241A  2026               	addwfc	(transformForm@i_353+1)^0,w,c
  2455  00241C  6E0A               	movwf	(??_transformForm+1)^0,c
  2456  00241E  C035  F00B         	movff	transformForm@a,??_transformForm+2
  2457  002422  C036  F00C         	movff	transformForm@a+1,??_transformForm+3
  2458  002426  90D8               	bcf	status,0,c
  2459  002428  360B               	rlcf	(??_transformForm+2)^0,f,c
  2460  00242A  360C               	rlcf	(??_transformForm+3)^0,f,c
  2461  00242C  90D8               	bcf	status,0,c
  2462  00242E  360B               	rlcf	(??_transformForm+2)^0,f,c
  2463  002430  360C               	rlcf	(??_transformForm+3)^0,f,c
  2464  002432  0E02               	movlw	2
  2465  002434  260B               	addwf	(??_transformForm+2)^0,f,c
  2466  002436  0E00               	movlw	0
  2467  002438  220C               	addwfc	(??_transformForm+3)^0,f,c
  2468  00243A  0E11               	movlw	low transformForm@newForme
  2469  00243C  240B               	addwf	(??_transformForm+2)^0,w,c
  2470  00243E  6ED9               	movwf	fsr2l,c
  2471  002440  0E00               	movlw	high transformForm@newForme
  2472  002442  200C               	addwfc	(??_transformForm+3)^0,w,c
  2473  002444  6EDA               	movwf	fsr2h,c
  2474  002446  C009  FFDE         	movff	??_transformForm,postinc2
  2475  00244A  C00A  FFDD         	movff	??_transformForm+1,postdec2
  2476  00244E                     
  2477                           ;../V3.X/formes.c: 93:       a++;
  2478  00244E  4A35               	infsnz	transformForm@a^0,f,c
  2479  002450  2A36               	incf	(transformForm@a+1)^0,f,c
  2480  002452                     l3623:
  2481                           
  2482                           ;../V3.X/formes.c: 95:     }
  2483  002452  4A27               	infsnz	transformForm@j_354^0,f,c
  2484  002454  2A28               	incf	(transformForm@j_354+1)^0,f,c
  2485  002456  5028               	movf	(transformForm@j_354+1)^0,w,c
  2486  002458  E109               	bnz	u2510
  2487  00245A  0E02               	movlw	2
  2488  00245C  5C27               	subwf	transformForm@j_354^0,w,c
  2489  00245E  A0D8               	btfss	status,0,c
  2490  002460  EF34  F012         	goto	u2511
  2491  002464  EF36  F012         	goto	u2510
  2492  002468                     u2511:
  2493  002468  EFCE  F011         	goto	l3617
  2494  00246C                     u2510:
  2495  00246C                     
  2496                           ;../V3.X/formes.c: 96:    }
  2497  00246C  4A25               	infsnz	transformForm@i_353^0,f,c
  2498  00246E  2A26               	incf	(transformForm@i_353+1)^0,f,c
  2499  002470  5026               	movf	(transformForm@i_353+1)^0,w,c
  2500  002472  E109               	bnz	u2520
  2501  002474  0E04               	movlw	4
  2502  002476  5C25               	subwf	transformForm@i_353^0,w,c
  2503  002478  A0D8               	btfss	status,0,c
  2504  00247A  EF41  F012         	goto	u2521
  2505  00247E  EF43  F012         	goto	u2520
  2506  002482                     u2521:
  2507  002482  EFCA  F011         	goto	l3611
  2508  002486                     u2520:
  2509  002486  EF65  F013         	goto	l3687
  2510  00248A                     l3631:
  2511                           
  2512                           ;../V3.X/formes.c: 99:    for(unsigned short i = 0; i < 4; i++){
  2513  00248A  0E00               	movlw	0
  2514  00248C  6E2A               	movwf	(transformForm@i_355+1)^0,c
  2515  00248E  0E00               	movlw	0
  2516  002490  6E29               	movwf	transformForm@i_355^0,c
  2517  002492                     l3637:
  2518                           
  2519                           ;../V3.X/formes.c: 100:     for(unsigned short j = 0; j < 2; j++){
  2520  002492  0E00               	movlw	0
  2521  002494  6E2C               	movwf	(transformForm@j_356+1)^0,c
  2522  002496  0E00               	movlw	0
  2523  002498  6E2B               	movwf	transformForm@j_356^0,c
  2524  00249A                     l3643:
  2525                           
  2526                           ;../V3.X/formes.c: 101:      if(forme[i][j] == 1){
  2527  00249A  C029  F009         	movff	transformForm@i_355,??_transformForm
  2528  00249E  C02A  F00A         	movff	transformForm@i_355+1,??_transformForm+1
  2529  0024A2  90D8               	bcf	status,0,c
  2530  0024A4  3609               	rlcf	??_transformForm^0,f,c
  2531  0024A6  360A               	rlcf	(??_transformForm+1)^0,f,c
  2532  0024A8  C001  F00B         	movff	transformForm@forme,??_transformForm+2
  2533  0024AC  C002  F00C         	movff	transformForm@forme+1,??_transformForm+3
  2534  0024B0  5009               	movf	??_transformForm^0,w,c
  2535  0024B2  260B               	addwf	(??_transformForm+2)^0,f,c
  2536  0024B4  500A               	movf	(??_transformForm+1)^0,w,c
  2537  0024B6  220C               	addwfc	(??_transformForm+3)^0,f,c
  2538  0024B8  502B               	movf	transformForm@j_356^0,w,c
  2539  0024BA  240B               	addwf	(??_transformForm+2)^0,w,c
  2540  0024BC  6ED9               	movwf	fsr2l,c
  2541  0024BE  502C               	movf	(transformForm@j_356+1)^0,w,c
  2542  0024C0  200C               	addwfc	(??_transformForm+3)^0,w,c
  2543  0024C2  6EDA               	movwf	fsr2h,c
  2544  0024C4  04DE               	decf	postinc2,w,c
  2545  0024C6  A4D8               	btfss	status,2,c
  2546  0024C8  EF68  F012         	goto	u2531
  2547  0024CC  EF6A  F012         	goto	u2530
  2548  0024D0                     u2531:
  2549  0024D0  EFAC  F012         	goto	l3649
  2550  0024D4                     u2530:
  2551  0024D4                     
  2552                           ;../V3.X/formes.c: 102:       newForme[a][0] = 3 - i+x;
  2553  0024D4  5029               	movf	transformForm@i_355^0,w,c
  2554  0024D6  5C03               	subwf	transformForm@x^0,w,c
  2555  0024D8  6E09               	movwf	??_transformForm^0,c
  2556  0024DA  502A               	movf	(transformForm@i_355+1)^0,w,c
  2557  0024DC  5804               	subwfb	(transformForm@x+1)^0,w,c
  2558  0024DE  6E0A               	movwf	(??_transformForm+1)^0,c
  2559  0024E0  0E03               	movlw	3
  2560  0024E2  2609               	addwf	??_transformForm^0,f,c
  2561  0024E4  0E00               	movlw	0
  2562  0024E6  220A               	addwfc	(??_transformForm+1)^0,f,c
  2563  0024E8  0E11               	movlw	low transformForm@newForme
  2564  0024EA  6E0B               	movwf	(??_transformForm+2)^0,c
  2565  0024EC  0E00               	movlw	high transformForm@newForme
  2566  0024EE  6E0C               	movwf	(??_transformForm+3)^0,c
  2567  0024F0  90D8               	bcf	status,0,c
  2568  0024F2  3435               	rlcf	transformForm@a^0,w,c
  2569  0024F4  6ED9               	movwf	fsr2l,c
  2570  0024F6  3436               	rlcf	(transformForm@a+1)^0,w,c
  2571  0024F8  6EDA               	movwf	fsr2h,c
  2572  0024FA  90D8               	bcf	status,0,c
  2573  0024FC  36D9               	rlcf	fsr2l,f,c
  2574  0024FE  36DA               	rlcf	fsr2h,f,c
  2575  002500  500B               	movf	(??_transformForm+2)^0,w,c
  2576  002502  26D9               	addwf	fsr2l,f,c
  2577  002504  500C               	movf	(??_transformForm+3)^0,w,c
  2578  002506  22DA               	addwfc	fsr2h,f,c
  2579  002508  C009  FFDE         	movff	??_transformForm,postinc2
  2580  00250C  C00A  FFDD         	movff	??_transformForm+1,postdec2
  2581                           
  2582                           ;../V3.X/formes.c: 103:       newForme[a][1] = 1 - j+y;
  2583  002510  502B               	movf	transformForm@j_356^0,w,c
  2584  002512  5C05               	subwf	transformForm@y^0,w,c
  2585  002514  6E09               	movwf	??_transformForm^0,c
  2586  002516  502C               	movf	(transformForm@j_356+1)^0,w,c
  2587  002518  5806               	subwfb	(transformForm@y+1)^0,w,c
  2588  00251A  6E0A               	movwf	(??_transformForm+1)^0,c
  2589  00251C  0E01               	movlw	1
  2590  00251E  2609               	addwf	??_transformForm^0,f,c
  2591  002520  0E00               	movlw	0
  2592  002522  220A               	addwfc	(??_transformForm+1)^0,f,c
  2593  002524  C035  F00B         	movff	transformForm@a,??_transformForm+2
  2594  002528  C036  F00C         	movff	transformForm@a+1,??_transformForm+3
  2595  00252C  90D8               	bcf	status,0,c
  2596  00252E  360B               	rlcf	(??_transformForm+2)^0,f,c
  2597  002530  360C               	rlcf	(??_transformForm+3)^0,f,c
  2598  002532  90D8               	bcf	status,0,c
  2599  002534  360B               	rlcf	(??_transformForm+2)^0,f,c
  2600  002536  360C               	rlcf	(??_transformForm+3)^0,f,c
  2601  002538  0E02               	movlw	2
  2602  00253A  260B               	addwf	(??_transformForm+2)^0,f,c
  2603  00253C  0E00               	movlw	0
  2604  00253E  220C               	addwfc	(??_transformForm+3)^0,f,c
  2605  002540  0E11               	movlw	low transformForm@newForme
  2606  002542  240B               	addwf	(??_transformForm+2)^0,w,c
  2607  002544  6ED9               	movwf	fsr2l,c
  2608  002546  0E00               	movlw	high transformForm@newForme
  2609  002548  200C               	addwfc	(??_transformForm+3)^0,w,c
  2610  00254A  6EDA               	movwf	fsr2h,c
  2611  00254C  C009  FFDE         	movff	??_transformForm,postinc2
  2612  002550  C00A  FFDD         	movff	??_transformForm+1,postdec2
  2613  002554                     
  2614                           ;../V3.X/formes.c: 104:       a++;
  2615  002554  4A35               	infsnz	transformForm@a^0,f,c
  2616  002556  2A36               	incf	(transformForm@a+1)^0,f,c
  2617  002558                     l3649:
  2618                           
  2619                           ;../V3.X/formes.c: 106:     }
  2620  002558  4A2B               	infsnz	transformForm@j_356^0,f,c
  2621  00255A  2A2C               	incf	(transformForm@j_356+1)^0,f,c
  2622  00255C  502C               	movf	(transformForm@j_356+1)^0,w,c
  2623  00255E  E109               	bnz	u2540
  2624  002560  0E02               	movlw	2
  2625  002562  5C2B               	subwf	transformForm@j_356^0,w,c
  2626  002564  A0D8               	btfss	status,0,c
  2627  002566  EFB7  F012         	goto	u2541
  2628  00256A  EFB9  F012         	goto	u2540
  2629  00256E                     u2541:
  2630  00256E  EF4D  F012         	goto	l3643
  2631  002572                     u2540:
  2632  002572                     
  2633                           ;../V3.X/formes.c: 107:    }
  2634  002572  4A29               	infsnz	transformForm@i_355^0,f,c
  2635  002574  2A2A               	incf	(transformForm@i_355+1)^0,f,c
  2636  002576  502A               	movf	(transformForm@i_355+1)^0,w,c
  2637  002578  E109               	bnz	u2550
  2638  00257A  0E04               	movlw	4
  2639  00257C  5C29               	subwf	transformForm@i_355^0,w,c
  2640  00257E  A0D8               	btfss	status,0,c
  2641  002580  EFC4  F012         	goto	u2551
  2642  002584  EFC6  F012         	goto	u2550
  2643  002588                     u2551:
  2644  002588  EF49  F012         	goto	l3637
  2645  00258C                     u2550:
  2646  00258C  EF65  F013         	goto	l3687
  2647  002590                     l3657:
  2648                           
  2649                           ;../V3.X/formes.c: 110:    for(unsigned short i = 0; i < 4; i++){
  2650  002590  0E00               	movlw	0
  2651  002592  6E2E               	movwf	(transformForm@i_357+1)^0,c
  2652  002594  0E00               	movlw	0
  2653  002596  6E2D               	movwf	transformForm@i_357^0,c
  2654  002598                     l3663:
  2655                           
  2656                           ;../V3.X/formes.c: 111:     for(unsigned short j = 0; j < 2; j++){
  2657  002598  0E00               	movlw	0
  2658  00259A  6E30               	movwf	(transformForm@j_358+1)^0,c
  2659  00259C  0E00               	movlw	0
  2660  00259E  6E2F               	movwf	transformForm@j_358^0,c
  2661  0025A0                     l3669:
  2662                           
  2663                           ;../V3.X/formes.c: 112:      if(forme[i][j] == 1){
  2664  0025A0  C02D  F009         	movff	transformForm@i_357,??_transformForm
  2665  0025A4  C02E  F00A         	movff	transformForm@i_357+1,??_transformForm+1
  2666  0025A8  90D8               	bcf	status,0,c
  2667  0025AA  3609               	rlcf	??_transformForm^0,f,c
  2668  0025AC  360A               	rlcf	(??_transformForm+1)^0,f,c
  2669  0025AE  C001  F00B         	movff	transformForm@forme,??_transformForm+2
  2670  0025B2  C002  F00C         	movff	transformForm@forme+1,??_transformForm+3
  2671  0025B6  5009               	movf	??_transformForm^0,w,c
  2672  0025B8  260B               	addwf	(??_transformForm+2)^0,f,c
  2673  0025BA  500A               	movf	(??_transformForm+1)^0,w,c
  2674  0025BC  220C               	addwfc	(??_transformForm+3)^0,f,c
  2675  0025BE  502F               	movf	transformForm@j_358^0,w,c
  2676  0025C0  240B               	addwf	(??_transformForm+2)^0,w,c
  2677  0025C2  6ED9               	movwf	fsr2l,c
  2678  0025C4  5030               	movf	(transformForm@j_358+1)^0,w,c
  2679  0025C6  200C               	addwfc	(??_transformForm+3)^0,w,c
  2680  0025C8  6EDA               	movwf	fsr2h,c
  2681  0025CA  04DE               	decf	postinc2,w,c
  2682  0025CC  A4D8               	btfss	status,2,c
  2683  0025CE  EFEB  F012         	goto	u2561
  2684  0025D2  EFED  F012         	goto	u2560
  2685  0025D6                     u2561:
  2686  0025D6  EF2B  F013         	goto	l3675
  2687  0025DA                     u2560:
  2688  0025DA                     
  2689                           ;../V3.X/formes.c: 113:       newForme[a][0] = j+x;
  2690  0025DA  5003               	movf	transformForm@x^0,w,c
  2691  0025DC  242F               	addwf	transformForm@j_358^0,w,c
  2692  0025DE  6E09               	movwf	??_transformForm^0,c
  2693  0025E0  5004               	movf	(transformForm@x+1)^0,w,c
  2694  0025E2  2030               	addwfc	(transformForm@j_358+1)^0,w,c
  2695  0025E4  6E0A               	movwf	(??_transformForm+1)^0,c
  2696  0025E6  0E11               	movlw	low transformForm@newForme
  2697  0025E8  6E0B               	movwf	(??_transformForm+2)^0,c
  2698  0025EA  0E00               	movlw	high transformForm@newForme
  2699  0025EC  6E0C               	movwf	(??_transformForm+3)^0,c
  2700  0025EE  90D8               	bcf	status,0,c
  2701  0025F0  3435               	rlcf	transformForm@a^0,w,c
  2702  0025F2  6ED9               	movwf	fsr2l,c
  2703  0025F4  3436               	rlcf	(transformForm@a+1)^0,w,c
  2704  0025F6  6EDA               	movwf	fsr2h,c
  2705  0025F8  90D8               	bcf	status,0,c
  2706  0025FA  36D9               	rlcf	fsr2l,f,c
  2707  0025FC  36DA               	rlcf	fsr2h,f,c
  2708  0025FE  500B               	movf	(??_transformForm+2)^0,w,c
  2709  002600  26D9               	addwf	fsr2l,f,c
  2710  002602  500C               	movf	(??_transformForm+3)^0,w,c
  2711  002604  22DA               	addwfc	fsr2h,f,c
  2712  002606  C009  FFDE         	movff	??_transformForm,postinc2
  2713  00260A  C00A  FFDD         	movff	??_transformForm+1,postdec2
  2714                           
  2715                           ;../V3.X/formes.c: 114:       newForme[a][1] = 3-i+y;
  2716  00260E  502D               	movf	transformForm@i_357^0,w,c
  2717  002610  5C05               	subwf	transformForm@y^0,w,c
  2718  002612  6E09               	movwf	??_transformForm^0,c
  2719  002614  502E               	movf	(transformForm@i_357+1)^0,w,c
  2720  002616  5806               	subwfb	(transformForm@y+1)^0,w,c
  2721  002618  6E0A               	movwf	(??_transformForm+1)^0,c
  2722  00261A  0E03               	movlw	3
  2723  00261C  2609               	addwf	??_transformForm^0,f,c
  2724  00261E  0E00               	movlw	0
  2725  002620  220A               	addwfc	(??_transformForm+1)^0,f,c
  2726  002622  C035  F00B         	movff	transformForm@a,??_transformForm+2
  2727  002626  C036  F00C         	movff	transformForm@a+1,??_transformForm+3
  2728  00262A  90D8               	bcf	status,0,c
  2729  00262C  360B               	rlcf	(??_transformForm+2)^0,f,c
  2730  00262E  360C               	rlcf	(??_transformForm+3)^0,f,c
  2731  002630  90D8               	bcf	status,0,c
  2732  002632  360B               	rlcf	(??_transformForm+2)^0,f,c
  2733  002634  360C               	rlcf	(??_transformForm+3)^0,f,c
  2734  002636  0E02               	movlw	2
  2735  002638  260B               	addwf	(??_transformForm+2)^0,f,c
  2736  00263A  0E00               	movlw	0
  2737  00263C  220C               	addwfc	(??_transformForm+3)^0,f,c
  2738  00263E  0E11               	movlw	low transformForm@newForme
  2739  002640  240B               	addwf	(??_transformForm+2)^0,w,c
  2740  002642  6ED9               	movwf	fsr2l,c
  2741  002644  0E00               	movlw	high transformForm@newForme
  2742  002646  200C               	addwfc	(??_transformForm+3)^0,w,c
  2743  002648  6EDA               	movwf	fsr2h,c
  2744  00264A  C009  FFDE         	movff	??_transformForm,postinc2
  2745  00264E  C00A  FFDD         	movff	??_transformForm+1,postdec2
  2746  002652                     
  2747                           ;../V3.X/formes.c: 115:       a++;
  2748  002652  4A35               	infsnz	transformForm@a^0,f,c
  2749  002654  2A36               	incf	(transformForm@a+1)^0,f,c
  2750  002656                     l3675:
  2751                           
  2752                           ;../V3.X/formes.c: 117:     }
  2753  002656  4A2F               	infsnz	transformForm@j_358^0,f,c
  2754  002658  2A30               	incf	(transformForm@j_358+1)^0,f,c
  2755  00265A  5030               	movf	(transformForm@j_358+1)^0,w,c
  2756  00265C  E109               	bnz	u2570
  2757  00265E  0E02               	movlw	2
  2758  002660  5C2F               	subwf	transformForm@j_358^0,w,c
  2759  002662  A0D8               	btfss	status,0,c
  2760  002664  EF36  F013         	goto	u2571
  2761  002668  EF38  F013         	goto	u2570
  2762  00266C                     u2571:
  2763  00266C  EFD0  F012         	goto	l3669
  2764  002670                     u2570:
  2765  002670                     
  2766                           ;../V3.X/formes.c: 118:    }
  2767  002670  4A2D               	infsnz	transformForm@i_357^0,f,c
  2768  002672  2A2E               	incf	(transformForm@i_357+1)^0,f,c
  2769  002674  502E               	movf	(transformForm@i_357+1)^0,w,c
  2770  002676  E109               	bnz	u2580
  2771  002678  0E04               	movlw	4
  2772  00267A  5C2D               	subwf	transformForm@i_357^0,w,c
  2773  00267C  A0D8               	btfss	status,0,c
  2774  00267E  EF43  F013         	goto	u2581
  2775  002682  EF45  F013         	goto	u2580
  2776  002686                     u2581:
  2777  002686  EFCC  F012         	goto	l3663
  2778  00268A                     u2580:
  2779  00268A  EF65  F013         	goto	l3687
  2780  00268E                     l3685:
  2781  00268E  C007  F009         	movff	transformForm@position,??_transformForm
  2782  002692  C008  F00A         	movff	transformForm@position+1,??_transformForm+1
  2783                           
  2784                           ; Switch on 2 bytes has been partitioned into a top level switch of size 1, and 1 sub-sw
      +                          itches
  2785                           ; Switch size 1, requested type "simple"
  2786                           ; Number of cases is 1, Range of values is 0 to 0
  2787                           ; switch strategies available:
  2788                           ; Name         Instructions Cycles
  2789                           ; simple_byte            4     3 (average)
  2790                           ;	Chosen strategy is simple_byte
  2791  002696  500A               	movf	(??_transformForm+1)^0,w,c
  2792  002698  0A00               	xorlw	0	; case 0
  2793  00269A  B4D8               	btfsc	status,2,c
  2794  00269C  EF52  F013         	goto	l4291
  2795  0026A0  EF65  F013         	goto	l3687
  2796  0026A4                     l4291:
  2797                           
  2798                           ; Switch size 1, requested type "simple"
  2799                           ; Number of cases is 4, Range of values is 0 to 3
  2800                           ; switch strategies available:
  2801                           ; Name         Instructions Cycles
  2802                           ; simple_byte           13     7 (average)
  2803                           ;	Chosen strategy is simple_byte
  2804  0026A4  5009               	movf	??_transformForm^0,w,c
  2805  0026A6  0A00               	xorlw	0	; case 0
  2806  0026A8  B4D8               	btfsc	status,2,c
  2807  0026AA  EF4B  F011         	goto	l3579
  2808  0026AE  0A01               	xorlw	1	; case 1
  2809  0026B0  B4D8               	btfsc	status,2,c
  2810  0026B2  EFC6  F011         	goto	l3605
  2811  0026B6  0A03               	xorlw	3	; case 2
  2812  0026B8  B4D8               	btfsc	status,2,c
  2813  0026BA  EF45  F012         	goto	l3631
  2814  0026BE  0A01               	xorlw	1	; case 3
  2815  0026C0  B4D8               	btfsc	status,2,c
  2816  0026C2  EFC8  F012         	goto	l3657
  2817  0026C6  EF65  F013         	goto	l3687
  2818  0026CA                     l3687:
  2819                           
  2820                           ;../V3.X/formes.c: 121:  for(unsigned short i = 0; i < 4; i++)
  2821  0026CA  0E00               	movlw	0
  2822  0026CC  6E32               	movwf	(transformForm@i_359+1)^0,c
  2823  0026CE  0E00               	movlw	0
  2824  0026D0  6E31               	movwf	transformForm@i_359^0,c
  2825  0026D2                     l3693:
  2826                           
  2827                           ;../V3.X/formes.c: 122:   for(unsigned short j = 0; j < 2; j++)
  2828  0026D2  0E00               	movlw	0
  2829  0026D4  6E34               	movwf	(transformForm@j_360+1)^0,c
  2830  0026D6  0E00               	movlw	0
  2831  0026D8  6E33               	movwf	transformForm@j_360^0,c
  2832  0026DA                     l3699:
  2833                           
  2834                           ;../V3.X/formes.c: 123:    forme[i][j] = newForme[i][j];
  2835  0026DA  C031  F009         	movff	transformForm@i_359,??_transformForm
  2836  0026DE  C032  F00A         	movff	transformForm@i_359+1,??_transformForm+1
  2837  0026E2  90D8               	bcf	status,0,c
  2838  0026E4  3609               	rlcf	??_transformForm^0,f,c
  2839  0026E6  360A               	rlcf	(??_transformForm+1)^0,f,c
  2840  0026E8  90D8               	bcf	status,0,c
  2841  0026EA  3609               	rlcf	??_transformForm^0,f,c
  2842  0026EC  360A               	rlcf	(??_transformForm+1)^0,f,c
  2843  0026EE  0E11               	movlw	low transformForm@newForme
  2844  0026F0  6E0B               	movwf	(??_transformForm+2)^0,c
  2845  0026F2  0E00               	movlw	high transformForm@newForme
  2846  0026F4  6E0C               	movwf	(??_transformForm+3)^0,c
  2847  0026F6  5009               	movf	??_transformForm^0,w,c
  2848  0026F8  260B               	addwf	(??_transformForm+2)^0,f,c
  2849  0026FA  500A               	movf	(??_transformForm+1)^0,w,c
  2850  0026FC  220C               	addwfc	(??_transformForm+3)^0,f,c
  2851  0026FE  90D8               	bcf	status,0,c
  2852  002700  3433               	rlcf	transformForm@j_360^0,w,c
  2853  002702  6ED9               	movwf	fsr2l,c
  2854  002704  3434               	rlcf	(transformForm@j_360+1)^0,w,c
  2855  002706  6EDA               	movwf	fsr2h,c
  2856  002708  500B               	movf	(??_transformForm+2)^0,w,c
  2857  00270A  26D9               	addwf	fsr2l,f,c
  2858  00270C  500C               	movf	(??_transformForm+3)^0,w,c
  2859  00270E  22DA               	addwfc	fsr2h,f,c
  2860  002710  C031  F00D         	movff	transformForm@i_359,??_transformForm+4
  2861  002714  C032  F00E         	movff	transformForm@i_359+1,??_transformForm+5
  2862  002718  90D8               	bcf	status,0,c
  2863  00271A  360D               	rlcf	(??_transformForm+4)^0,f,c
  2864  00271C  360E               	rlcf	(??_transformForm+5)^0,f,c
  2865  00271E  C001  F00F         	movff	transformForm@forme,??_transformForm+6
  2866  002722  C002  F010         	movff	transformForm@forme+1,??_transformForm+7
  2867  002726  500D               	movf	(??_transformForm+4)^0,w,c
  2868  002728  260F               	addwf	(??_transformForm+6)^0,f,c
  2869  00272A  500E               	movf	(??_transformForm+5)^0,w,c
  2870  00272C  2210               	addwfc	(??_transformForm+7)^0,f,c
  2871  00272E  5033               	movf	transformForm@j_360^0,w,c
  2872  002730  240F               	addwf	(??_transformForm+6)^0,w,c
  2873  002732  6EE1               	movwf	fsr1l,c
  2874  002734  5034               	movf	(transformForm@j_360+1)^0,w,c
  2875  002736  2010               	addwfc	(??_transformForm+7)^0,w,c
  2876  002738  6EE2               	movwf	fsr1h,c
  2877  00273A  CFDF FFE7          	movff	indf2,indf1
  2878  00273E  4A33               	infsnz	transformForm@j_360^0,f,c
  2879  002740  2A34               	incf	(transformForm@j_360+1)^0,f,c
  2880  002742  5034               	movf	(transformForm@j_360+1)^0,w,c
  2881  002744  E109               	bnz	u2590
  2882  002746  0E02               	movlw	2
  2883  002748  5C33               	subwf	transformForm@j_360^0,w,c
  2884  00274A  A0D8               	btfss	status,0,c
  2885  00274C  EFAA  F013         	goto	u2591
  2886  002750  EFAC  F013         	goto	u2590
  2887  002754                     u2591:
  2888  002754  EF6D  F013         	goto	l3699
  2889  002758                     u2590:
  2890  002758  4A31               	infsnz	transformForm@i_359^0,f,c
  2891  00275A  2A32               	incf	(transformForm@i_359+1)^0,f,c
  2892  00275C  5032               	movf	(transformForm@i_359+1)^0,w,c
  2893  00275E  E109               	bnz	u2600
  2894  002760  0E04               	movlw	4
  2895  002762  5C31               	subwf	transformForm@i_359^0,w,c
  2896  002764  A0D8               	btfss	status,0,c
  2897  002766  EFB7  F013         	goto	u2601
  2898  00276A  EFB9  F013         	goto	u2600
  2899  00276E                     u2601:
  2900  00276E  EF69  F013         	goto	l3693
  2901  002772                     u2600:
  2902  002772  0012               	return		;funcret
  2903  002774                     __end_of_transformForm:
  2904                           	opt callstack 0
  2905                           
  2906 ;; *************** function _time *****************
  2907 ;; Defined at:
  2908 ;;		line 6 in file "C:\Program Files (x86)\Microchip\xc8\v2.10\pic\sources\c99\common\time.c"
  2909 ;; Parameters:    Size  Location     Type
  2910 ;;  t               2    0[COMRAM] PTR long long 
  2911 ;;		 -> NULL(0), 
  2912 ;; Auto vars:     Size  Location     Type
  2913 ;;		None
  2914 ;; Return value:  Size  Location     Type
  2915 ;;                  8    0[COMRAM] long long 
  2916 ;; Registers used:
  2917 ;;		wreg, fsr2l, fsr2h, status,2, status,0
  2918 ;; Tracked objects:
  2919 ;;		On entry : 0/0
  2920 ;;		On exit  : 0/0
  2921 ;;		Unchanged: 0/0
  2922 ;; Data sizes:     COMRAM   BANK0   BANK1   BANK4
  2923 ;;      Params:         8       0       0       0
  2924 ;;      Locals:         0       0       0       0
  2925 ;;      Temps:          0       0       0       0
  2926 ;;      Totals:         8       0       0       0
  2927 ;;Total ram usage:        8 bytes
  2928 ;; Hardware stack levels used:    1
  2929 ;; This function calls:
  2930 ;;		Nothing
  2931 ;; This function is called by:
  2932 ;;		_main
  2933 ;; This function uses a non-reentrant model
  2934 ;;
  2935                           
  2936                           	psect	text2
  2937  00146E                     __ptext2:
  2938                           	opt callstack 0
  2939  00146E                     _time:
  2940                           	opt callstack 30
  2941  00146E  5001               	movf	time@t^0,w,c
  2942  001470  1002               	iorwf	(time@t+1)^0,w,c
  2943  001472  B4D8               	btfsc	status,2,c
  2944  001474  EF3E  F00A         	goto	u2051
  2945  001478  EF40  F00A         	goto	u2050
  2946  00147C                     u2051:
  2947  00147C  EF54  F00A         	goto	l3311
  2948  001480                     u2050:
  2949  001480  C001  FFD9         	movff	time@t,fsr2l
  2950  001484  C002  FFDA         	movff	time@t+1,fsr2h
  2951  001488  0EFF               	movlw	255
  2952  00148A  6EDE               	movwf	postinc2,c
  2953  00148C  0EFF               	movlw	255
  2954  00148E  6EDE               	movwf	postinc2,c
  2955  001490  0EFF               	movlw	255
  2956  001492  6EDE               	movwf	postinc2,c
  2957  001494  0EFF               	movlw	255
  2958  001496  6EDE               	movwf	postinc2,c
  2959  001498  0EFF               	movlw	255
  2960  00149A  6EDE               	movwf	postinc2,c
  2961  00149C  0EFF               	movlw	255
  2962  00149E  6EDE               	movwf	postinc2,c
  2963  0014A0  0EFF               	movlw	255
  2964  0014A2  6EDE               	movwf	postinc2,c
  2965  0014A4  0EFF               	movlw	255
  2966  0014A6  6EDD               	movwf	postdec2,c
  2967  0014A8                     l3311:
  2968  0014A8  6801               	setf	?_time^0,c
  2969  0014AA  6802               	setf	(?_time+1)^0,c
  2970  0014AC  6803               	setf	(?_time+2)^0,c
  2971  0014AE  6804               	setf	(?_time+3)^0,c
  2972  0014B0  6805               	setf	(?_time+4)^0,c
  2973  0014B2  6806               	setf	(?_time+5)^0,c
  2974  0014B4  6807               	setf	(?_time+6)^0,c
  2975  0014B6  6808               	setf	(?_time+7)^0,c
  2976  0014B8  0012               	return		;funcret
  2977  0014BA                     __end_of_time:
  2978                           	opt callstack 0
  2979                           
  2980 ;; *************** function _srand *****************
  2981 ;; Defined at:
  2982 ;;		line 10 in file "C:\Program Files (x86)\Microchip\xc8\v2.10\pic\sources\c99\common\rand.c"
  2983 ;; Parameters:    Size  Location     Type
  2984 ;;  s               2    8[COMRAM] unsigned int 
  2985 ;; Auto vars:     Size  Location     Type
  2986 ;;		None
  2987 ;; Return value:  Size  Location     Type
  2988 ;;                  1    wreg      void 
  2989 ;; Registers used:
  2990 ;;		wreg, status,2, status,0
  2991 ;; Tracked objects:
  2992 ;;		On entry : 0/0
  2993 ;;		On exit  : 0/0
  2994 ;;		Unchanged: 0/0
  2995 ;; Data sizes:     COMRAM   BANK0   BANK1   BANK4
  2996 ;;      Params:         2       0       0       0
  2997 ;;      Locals:         0       0       0       0
  2998 ;;      Temps:          4       0       0       0
  2999 ;;      Totals:         6       0       0       0
  3000 ;;Total ram usage:        6 bytes
  3001 ;; Hardware stack levels used:    1
  3002 ;; This function calls:
  3003 ;;		Nothing
  3004 ;; This function is called by:
  3005 ;;		_main
  3006 ;; This function uses a non-reentrant model
  3007 ;;
  3008                           
  3009                           	psect	text3
  3010  00135C                     __ptext3:
  3011                           	opt callstack 0
  3012  00135C                     _srand:
  3013                           	opt callstack 30
  3014  00135C  0EFF               	movlw	255
  3015  00135E  6E0B               	movwf	??_srand^0,c
  3016  001360  0EFF               	movlw	255
  3017  001362  6E0C               	movwf	(??_srand+1)^0,c
  3018  001364  C009  F00D         	movff	srand@s,??_srand+2
  3019  001368  C00A  F00E         	movff	srand@s+1,??_srand+3
  3020  00136C  500B               	movf	??_srand^0,w,c
  3021  00136E  260D               	addwf	(??_srand+2)^0,f,c
  3022  001370  500C               	movf	(??_srand+1)^0,w,c
  3023  001372  220E               	addwfc	(??_srand+3)^0,f,c
  3024  001374  C00D  F0AD         	movff	??_srand+2,_seed
  3025  001378  C00E  F0AE         	movff	??_srand+3,_seed+1
  3026  00137C  0100               	movlb	0	; () banked
  3027  00137E  6BAF               	clrf	(_seed+2)& (0+255),b
  3028  001380  6BB0               	clrf	(_seed+3)& (0+255),b
  3029  001382  6BB1               	clrf	(_seed+4)& (0+255),b
  3030  001384  6BB2               	clrf	(_seed+5)& (0+255),b
  3031  001386  6BB3               	clrf	(_seed+6)& (0+255),b
  3032  001388  6BB4               	clrf	(_seed+7)& (0+255),b
  3033  00138A                     
  3034                           ; BSR set to: 0
  3035  00138A  0012               	return		;funcret
  3036  00138C                     __end_of_srand:
  3037                           	opt callstack 0
  3038                           
  3039 ;; *************** function _rand *****************
  3040 ;; Defined at:
  3041 ;;		line 15 in file "C:\Program Files (x86)\Microchip\xc8\v2.10\pic\sources\c99\common\rand.c"
  3042 ;; Parameters:    Size  Location     Type
  3043 ;;		None
  3044 ;; Auto vars:     Size  Location     Type
  3045 ;;		None
  3046 ;; Return value:  Size  Location     Type
  3047 ;;                  2   24[COMRAM] int 
  3048 ;; Registers used:
  3049 ;;		wreg, fsr2l, fsr2h, status,2, status,0, cstack
  3050 ;; Tracked objects:
  3051 ;;		On entry : 0/0
  3052 ;;		On exit  : 0/0
  3053 ;;		Unchanged: 0/0
  3054 ;; Data sizes:     COMRAM   BANK0   BANK1   BANK4
  3055 ;;      Params:         2       0       0       0
  3056 ;;      Locals:         0       0       0       0
  3057 ;;      Temps:          8       0       0       0
  3058 ;;      Totals:        10       0       0       0
  3059 ;;Total ram usage:       10 bytes
  3060 ;; Hardware stack levels used:    1
  3061 ;; Hardware stack levels required when called:    1
  3062 ;; This function calls:
  3063 ;;		___omul
  3064 ;; This function is called by:
  3065 ;;		_main
  3066 ;; This function uses a non-reentrant model
  3067 ;;
  3068                           
  3069                           	psect	text4
  3070  001DB4                     __ptext4:
  3071                           	opt callstack 0
  3072  001DB4                     _rand:
  3073                           	opt callstack 29
  3074  001DB4  C0AD  F001         	movff	_seed,___omul@multiplier
  3075  001DB8  C0AE  F002         	movff	_seed+1,___omul@multiplier+1
  3076  001DBC  C0AF  F003         	movff	_seed+2,___omul@multiplier+2
  3077  001DC0  C0B0  F004         	movff	_seed+3,___omul@multiplier+3
  3078  001DC4  C0B1  F005         	movff	_seed+4,___omul@multiplier+4
  3079  001DC8  C0B2  F006         	movff	_seed+5,___omul@multiplier+5
  3080  001DCC  C0B3  F007         	movff	_seed+6,___omul@multiplier+6
  3081  001DD0  C0B4  F008         	movff	_seed+7,___omul@multiplier+7
  3082  001DD4  0E2D               	movlw	45
  3083  001DD6  6E09               	movwf	___omul@multiplicand^0,c
  3084  001DD8  0E7F               	movlw	127
  3085  001DDA  6E0A               	movwf	(___omul@multiplicand+1)^0,c
  3086  001DDC  0E95               	movlw	149
  3087  001DDE  6E0B               	movwf	(___omul@multiplicand+2)^0,c
  3088  001DE0  0E4C               	movlw	76
  3089  001DE2  6E0C               	movwf	(___omul@multiplicand+3)^0,c
  3090  001DE4  0E2D               	movlw	45
  3091  001DE6  6E0D               	movwf	(___omul@multiplicand+4)^0,c
  3092  001DE8  0EF4               	movlw	244
  3093  001DEA  6E0E               	movwf	(___omul@multiplicand+5)^0,c
  3094  001DEC  0E51               	movlw	81
  3095  001DEE  6E0F               	movwf	(___omul@multiplicand+6)^0,c
  3096  001DF0  0E58               	movlw	88
  3097  001DF2  6E10               	movwf	(___omul@multiplicand+7)^0,c
  3098  001DF4  ECA9  F00C         	call	___omul	;wreg free
  3099  001DF8  C001  F01B         	movff	?___omul,??_rand
  3100  001DFC  C002  F01C         	movff	?___omul+1,??_rand+1
  3101  001E00  C003  F01D         	movff	?___omul+2,??_rand+2
  3102  001E04  C004  F01E         	movff	?___omul+3,??_rand+3
  3103  001E08  C005  F01F         	movff	?___omul+4,??_rand+4
  3104  001E0C  C006  F020         	movff	?___omul+5,??_rand+5
  3105  001E10  C007  F021         	movff	?___omul+6,??_rand+6
  3106  001E14  C008  F022         	movff	?___omul+7,??_rand+7
  3107  001E18  0E01               	movlw	1
  3108  001E1A  241B               	addwf	??_rand^0,w,c
  3109  001E1C  0100               	movlb	0	; () banked
  3110  001E1E  6FAD               	movwf	_seed& (0+255),b
  3111  001E20  0E00               	movlw	0
  3112  001E22  201C               	addwfc	(??_rand+1)^0,w,c
  3113  001E24  6FAE               	movwf	(_seed+1)& (0+255),b
  3114  001E26  0E00               	movlw	0
  3115  001E28  201D               	addwfc	(??_rand+2)^0,w,c
  3116  001E2A  6FAF               	movwf	(_seed+2)& (0+255),b
  3117  001E2C  0E00               	movlw	0
  3118  001E2E  201E               	addwfc	(??_rand+3)^0,w,c
  3119  001E30  6FB0               	movwf	(_seed+3)& (0+255),b
  3120  001E32  0E00               	movlw	0
  3121  001E34  201F               	addwfc	(??_rand+4)^0,w,c
  3122  001E36  6FB1               	movwf	(_seed+4)& (0+255),b
  3123  001E38  0E00               	movlw	0
  3124  001E3A  2020               	addwfc	(??_rand+5)^0,w,c
  3125  001E3C  6FB2               	movwf	(_seed+5)& (0+255),b
  3126  001E3E  0E00               	movlw	0
  3127  001E40  2021               	addwfc	(??_rand+6)^0,w,c
  3128  001E42  6FB3               	movwf	(_seed+6)& (0+255),b
  3129  001E44  0E00               	movlw	0
  3130  001E46  2022               	addwfc	(??_rand+7)^0,w,c
  3131  001E48  6FB4               	movwf	(_seed+7)& (0+255),b
  3132  001E4A                     
  3133                           ; BSR set to: 0
  3134  001E4A  C0AD  F01B         	movff	_seed,??_rand
  3135  001E4E  C0AE  F01C         	movff	_seed+1,??_rand+1
  3136  001E52  C0AF  F01D         	movff	_seed+2,??_rand+2
  3137  001E56  C0B0  F01E         	movff	_seed+3,??_rand+3
  3138  001E5A  C0B1  F01F         	movff	_seed+4,??_rand+4
  3139  001E5E  C0B2  F020         	movff	_seed+5,??_rand+5
  3140  001E62  C0B3  F021         	movff	_seed+6,??_rand+6
  3141  001E66  C0B4  F022         	movff	_seed+7,??_rand+7
  3142  001E6A  0E32               	movlw	50
  3143  001E6C  EF41  F00F         	goto	u2620
  3144  001E70                     u2625:
  3145  001E70  90D8               	bcf	status,0,c
  3146  001E72  3222               	rrcf	(??_rand+7)^0,f,c
  3147  001E74  3221               	rrcf	(??_rand+6)^0,f,c
  3148  001E76  3220               	rrcf	(??_rand+5)^0,f,c
  3149  001E78  321F               	rrcf	(??_rand+4)^0,f,c
  3150  001E7A  321E               	rrcf	(??_rand+3)^0,f,c
  3151  001E7C  321D               	rrcf	(??_rand+2)^0,f,c
  3152  001E7E  321C               	rrcf	(??_rand+1)^0,f,c
  3153  001E80  321B               	rrcf	??_rand^0,f,c
  3154  001E82                     u2620:
  3155  001E82  2EE8               	decfsz	wreg,f,c
  3156  001E84  EF38  F00F         	goto	u2625
  3157  001E88  C01B  F019         	movff	??_rand,?_rand
  3158  001E8C  C01D  F01A         	movff	??_rand+2,?_rand+1
  3159  001E90                     
  3160                           ; BSR set to: 0
  3161  001E90  0012               	return		;funcret
  3162  001E92                     __end_of_rand:
  3163                           	opt callstack 0
  3164                           
  3165 ;; *************** function ___omul *****************
  3166 ;; Defined at:
  3167 ;;		line 91 in file "C:\Program Files (x86)\Microchip\xc8\v2.10\pic\sources\c99\common\Umul64.c"
  3168 ;; Parameters:    Size  Location     Type
  3169 ;;  multiplier      8    0[COMRAM] unsigned long long 
  3170 ;;  multiplicand    8    8[COMRAM] unsigned long long 
  3171 ;; Auto vars:     Size  Location     Type
  3172 ;;  product         8   16[COMRAM] unsigned long long 
  3173 ;; Return value:  Size  Location     Type
  3174 ;;                  8    0[COMRAM] unsigned long long 
  3175 ;; Registers used:
  3176 ;;		wreg, fsr2l, fsr2h, status,2, status,0
  3177 ;; Tracked objects:
  3178 ;;		On entry : 0/0
  3179 ;;		On exit  : 0/0
  3180 ;;		Unchanged: 0/0
  3181 ;; Data sizes:     COMRAM   BANK0   BANK1   BANK4
  3182 ;;      Params:        16       0       0       0
  3183 ;;      Locals:         8       0       0       0
  3184 ;;      Temps:          0       0       0       0
  3185 ;;      Totals:        24       0       0       0
  3186 ;;Total ram usage:       24 bytes
  3187 ;; Hardware stack levels used:    1
  3188 ;; This function calls:
  3189 ;;		Nothing
  3190 ;; This function is called by:
  3191 ;;		_rand
  3192 ;; This function uses a non-reentrant model
  3193 ;;
  3194                           
  3195                           	psect	text5
  3196  001952                     __ptext5:
  3197                           	opt callstack 0
  3198  001952                     ___omul:
  3199                           	opt callstack 29
  3200  001952  EE20  F011         	lfsr	2,___omul@product
  3201  001956  0E07               	movlw	7
  3202  001958                     u1951:
  3203  001958  6ADE               	clrf	postinc2,c
  3204  00195A  06E8               	decf	wreg,f,c
  3205  00195C  E2FD               	bc	u1951
  3206  00195E                     l3215:
  3207  00195E  A001               	btfss	___omul@multiplier^0,0,c
  3208  001960  EFB4  F00C         	goto	u1961
  3209  001964  EFB6  F00C         	goto	u1960
  3210  001968                     u1961:
  3211  001968  EFC6  F00C         	goto	l3219
  3212  00196C                     u1960:
  3213  00196C  5009               	movf	___omul@multiplicand^0,w,c
  3214  00196E  2611               	addwf	___omul@product^0,f,c
  3215  001970  500A               	movf	(___omul@multiplicand+1)^0,w,c
  3216  001972  2212               	addwfc	(___omul@product+1)^0,f,c
  3217  001974  500B               	movf	(___omul@multiplicand+2)^0,w,c
  3218  001976  2213               	addwfc	(___omul@product+2)^0,f,c
  3219  001978  500C               	movf	(___omul@multiplicand+3)^0,w,c
  3220  00197A  2214               	addwfc	(___omul@product+3)^0,f,c
  3221  00197C  500D               	movf	(___omul@multiplicand+4)^0,w,c
  3222  00197E  2215               	addwfc	(___omul@product+4)^0,f,c
  3223  001980  500E               	movf	(___omul@multiplicand+5)^0,w,c
  3224  001982  2216               	addwfc	(___omul@product+5)^0,f,c
  3225  001984  500F               	movf	(___omul@multiplicand+6)^0,w,c
  3226  001986  2217               	addwfc	(___omul@product+6)^0,f,c
  3227  001988  5010               	movf	(___omul@multiplicand+7)^0,w,c
  3228  00198A  2218               	addwfc	(___omul@product+7)^0,f,c
  3229  00198C                     l3219:
  3230  00198C  90D8               	bcf	status,0,c
  3231  00198E  3609               	rlcf	___omul@multiplicand^0,f,c
  3232  001990  360A               	rlcf	(___omul@multiplicand+1)^0,f,c
  3233  001992  360B               	rlcf	(___omul@multiplicand+2)^0,f,c
  3234  001994  360C               	rlcf	(___omul@multiplicand+3)^0,f,c
  3235  001996  360D               	rlcf	(___omul@multiplicand+4)^0,f,c
  3236  001998  360E               	rlcf	(___omul@multiplicand+5)^0,f,c
  3237  00199A  360F               	rlcf	(___omul@multiplicand+6)^0,f,c
  3238  00199C  3610               	rlcf	(___omul@multiplicand+7)^0,f,c
  3239  00199E  90D8               	bcf	status,0,c
  3240  0019A0  3208               	rrcf	(___omul@multiplier+7)^0,f,c
  3241  0019A2  3207               	rrcf	(___omul@multiplier+6)^0,f,c
  3242  0019A4  3206               	rrcf	(___omul@multiplier+5)^0,f,c
  3243  0019A6  3205               	rrcf	(___omul@multiplier+4)^0,f,c
  3244  0019A8  3204               	rrcf	(___omul@multiplier+3)^0,f,c
  3245  0019AA  3203               	rrcf	(___omul@multiplier+2)^0,f,c
  3246  0019AC  3202               	rrcf	(___omul@multiplier+1)^0,f,c
  3247  0019AE  3201               	rrcf	___omul@multiplier^0,f,c
  3248  0019B0  5001               	movf	___omul@multiplier^0,w,c
  3249  0019B2  1002               	iorwf	(___omul@multiplier+1)^0,w,c
  3250  0019B4  1003               	iorwf	(___omul@multiplier+2)^0,w,c
  3251  0019B6  1004               	iorwf	(___omul@multiplier+3)^0,w,c
  3252  0019B8  1005               	iorwf	(___omul@multiplier+4)^0,w,c
  3253  0019BA  1006               	iorwf	(___omul@multiplier+5)^0,w,c
  3254  0019BC  1007               	iorwf	(___omul@multiplier+6)^0,w,c
  3255  0019BE  1008               	iorwf	(___omul@multiplier+7)^0,w,c
  3256  0019C0  A4D8               	btfss	status,2,c
  3257  0019C2  EFE5  F00C         	goto	u1971
  3258  0019C6  EFE7  F00C         	goto	u1970
  3259  0019CA                     u1971:
  3260  0019CA  EFAF  F00C         	goto	l3215
  3261  0019CE                     u1970:
  3262  0019CE  C011  F001         	movff	___omul@product,?___omul
  3263  0019D2  C012  F002         	movff	___omul@product+1,?___omul+1
  3264  0019D6  C013  F003         	movff	___omul@product+2,?___omul+2
  3265  0019DA  C014  F004         	movff	___omul@product+3,?___omul+3
  3266  0019DE  C015  F005         	movff	___omul@product+4,?___omul+4
  3267  0019E2  C016  F006         	movff	___omul@product+5,?___omul+5
  3268  0019E6  C017  F007         	movff	___omul@product+6,?___omul+6
  3269  0019EA  C018  F008         	movff	___omul@product+7,?___omul+7
  3270  0019EE  0012               	return		;funcret
  3271  0019F0                     __end_of___omul:
  3272                           	opt callstack 0
  3273                           
  3274 ;; *************** function _putPiece *****************
  3275 ;; Defined at:
  3276 ;;		line 14 in file "../V3.X/collisions.c"
  3277 ;; Parameters:    Size  Location     Type
  3278 ;;  tab             2    0[COMRAM] PTR unsigned char [10]
  3279 ;;		 -> main@tab(220), 
  3280 ;;  forme           2    2[COMRAM] PTR unsigned char [2]
  3281 ;;		 -> main@forme(8), 
  3282 ;;  points          2    4[COMRAM] unsigned short 
  3283 ;; Auto vars:     Size  Location     Type
  3284 ;;  i               2   14[COMRAM] unsigned short 
  3285 ;; Return value:  Size  Location     Type
  3286 ;;                  1    wreg      void 
  3287 ;; Registers used:
  3288 ;;		wreg, fsr2l, fsr2h, status,2, status,0, prodl, prodh
  3289 ;; Tracked objects:
  3290 ;;		On entry : 0/0
  3291 ;;		On exit  : 0/0
  3292 ;;		Unchanged: 0/0
  3293 ;; Data sizes:     COMRAM   BANK0   BANK1   BANK4
  3294 ;;      Params:         6       0       0       0
  3295 ;;      Locals:         2       0       0       0
  3296 ;;      Temps:          8       0       0       0
  3297 ;;      Totals:        16       0       0       0
  3298 ;;Total ram usage:       16 bytes
  3299 ;; Hardware stack levels used:    1
  3300 ;; This function calls:
  3301 ;;		Nothing
  3302 ;; This function is called by:
  3303 ;;		_main
  3304 ;; This function uses a non-reentrant model
  3305 ;;
  3306                           
  3307                           	psect	text6
  3308  001790                     __ptext6:
  3309                           	opt callstack 0
  3310  001790                     _putPiece:
  3311                           	opt callstack 30
  3312  001790                     
  3313                           ;../V3.X/collisions.c: 15:  for(unsigned short i = 0; i < 4; i++){
  3314  001790  0E00               	movlw	0
  3315  001792  6E10               	movwf	(putPiece@i+1)^0,c
  3316  001794  0E00               	movlw	0
  3317  001796  6E0F               	movwf	putPiece@i^0,c
  3318  001798                     l3753:
  3319                           
  3320                           ;../V3.X/collisions.c: 16:   tab[forme[i][0]][forme[i][1]] = 1;
  3321  001798  C00F  F007         	movff	putPiece@i,??_putPiece
  3322  00179C  C010  F008         	movff	putPiece@i+1,??_putPiece+1
  3323  0017A0  90D8               	bcf	status,0,c
  3324  0017A2  3607               	rlcf	??_putPiece^0,f,c
  3325  0017A4  3608               	rlcf	(??_putPiece+1)^0,f,c
  3326  0017A6  C003  F009         	movff	putPiece@forme,??_putPiece+2
  3327  0017AA  C004  F00A         	movff	putPiece@forme+1,??_putPiece+3
  3328  0017AE  5007               	movf	??_putPiece^0,w,c
  3329  0017B0  2609               	addwf	(??_putPiece+2)^0,f,c
  3330  0017B2  5008               	movf	(??_putPiece+1)^0,w,c
  3331  0017B4  220A               	addwfc	(??_putPiece+3)^0,f,c
  3332  0017B6  0E01               	movlw	1
  3333  0017B8  2409               	addwf	(??_putPiece+2)^0,w,c
  3334  0017BA  6ED9               	movwf	fsr2l,c
  3335  0017BC  0E00               	movlw	0
  3336  0017BE  200A               	addwfc	(??_putPiece+3)^0,w,c
  3337  0017C0  6EDA               	movwf	fsr2h,c
  3338  0017C2  50DF               	movf	indf2,w,c
  3339  0017C4  6E0B               	movwf	(??_putPiece+4)^0,c
  3340  0017C6  90D8               	bcf	status,0,c
  3341  0017C8  340F               	rlcf	putPiece@i^0,w,c
  3342  0017CA  6ED9               	movwf	fsr2l,c
  3343  0017CC  3410               	rlcf	(putPiece@i+1)^0,w,c
  3344  0017CE  6EDA               	movwf	fsr2h,c
  3345  0017D0  5003               	movf	putPiece@forme^0,w,c
  3346  0017D2  26D9               	addwf	fsr2l,f,c
  3347  0017D4  5004               	movf	(putPiece@forme+1)^0,w,c
  3348  0017D6  22DA               	addwfc	fsr2h,f,c
  3349  0017D8  50DF               	movf	indf2,w,c
  3350  0017DA  6E0C               	movwf	(??_putPiece+5)^0,c
  3351  0017DC  500C               	movf	(??_putPiece+5)^0,w,c
  3352  0017DE  0D0A               	mullw	10
  3353  0017E0  C001  F00D         	movff	putPiece@tab,??_putPiece+6
  3354  0017E4  C002  F00E         	movff	putPiece@tab+1,??_putPiece+7
  3355  0017E8  50F3               	movf	243,w,c
  3356  0017EA  260D               	addwf	(??_putPiece+6)^0,f,c
  3357  0017EC  50F4               	movf	244,w,c
  3358  0017EE  220E               	addwfc	(??_putPiece+7)^0,f,c
  3359  0017F0  500B               	movf	(??_putPiece+4)^0,w,c
  3360  0017F2  240D               	addwf	(??_putPiece+6)^0,w,c
  3361  0017F4  6ED9               	movwf	fsr2l,c
  3362  0017F6  0E00               	movlw	0
  3363  0017F8  200E               	addwfc	(??_putPiece+7)^0,w,c
  3364  0017FA  6EDA               	movwf	fsr2h,c
  3365  0017FC  0E01               	movlw	1
  3366  0017FE  6EDF               	movwf	indf2,c
  3367  001800                     
  3368                           ;../V3.X/collisions.c: 17:  }
  3369  001800  4A0F               	infsnz	putPiece@i^0,f,c
  3370  001802  2A10               	incf	(putPiece@i+1)^0,f,c
  3371  001804  5010               	movf	(putPiece@i+1)^0,w,c
  3372  001806  E109               	bnz	u2660
  3373  001808  0E04               	movlw	4
  3374  00180A  5C0F               	subwf	putPiece@i^0,w,c
  3375  00180C  A0D8               	btfss	status,0,c
  3376  00180E  EF0B  F00C         	goto	u2661
  3377  001812  EF0D  F00C         	goto	u2660
  3378  001816                     u2661:
  3379  001816  EFCC  F00B         	goto	l3753
  3380  00181A                     u2660:
  3381  00181A  0012               	return		;funcret
  3382  00181C                     __end_of_putPiece:
  3383                           	opt callstack 0
  3384                           
  3385 ;; *************** function _menu *****************
  3386 ;; Defined at:
  3387 ;;		line 135 in file "newmain.c"
  3388 ;; Parameters:    Size  Location     Type
  3389 ;;		None
  3390 ;; Auto vars:     Size  Location     Type
  3391 ;;  fin             2   29[COMRAM] int 
  3392 ;; Return value:  Size  Location     Type
  3393 ;;                  1    wreg      void 
  3394 ;; Registers used:
  3395 ;;		wreg, status,2, status,0, prodl, prodh, cstack
  3396 ;; Tracked objects:
  3397 ;;		On entry : 0/0
  3398 ;;		On exit  : 0/0
  3399 ;;		Unchanged: 0/0
  3400 ;; Data sizes:     COMRAM   BANK0   BANK1   BANK4
  3401 ;;      Params:         0       0       0       0
  3402 ;;      Locals:         2       0       0       0
  3403 ;;      Temps:          2       0       0       0
  3404 ;;      Totals:         4       0       0       0
  3405 ;;Total ram usage:        4 bytes
  3406 ;; Hardware stack levels used:    1
  3407 ;; Hardware stack levels required when called:    5
  3408 ;; This function calls:
  3409 ;;		_affMenu
  3410 ;;		_glcd_FillScreen
  3411 ;;		_menuTetris
  3412 ;; This function is called by:
  3413 ;;		_main
  3414 ;; This function uses a non-reentrant model
  3415 ;;
  3416                           
  3417                           	psect	text7
  3418  001694                     __ptext7:
  3419                           	opt callstack 0
  3420  001694                     _menu:
  3421                           	opt callstack 25
  3422  001694                     
  3423                           ;newmain.c: 137: 
  3424  001694  0E00               	movlw	0
  3425  001696  6E1F               	movwf	(menu@fin+1)^0,c
  3426  001698  0E00               	movlw	0
  3427  00169A  6E1E               	movwf	menu@fin^0,c
  3428  00169C                     
  3429                           ;newmain.c: 138: }
  3430  00169C  0E00               	movlw	0
  3431  00169E  EC88  F00B         	call	_glcd_FillScreen
  3432  0016A2                     
  3433                           ;newmain.c: 140: void affMenu()
  3434  0016A2  EC89  F016         	call	_affMenu	;wreg free
  3435                           
  3436                           ;newmain.c: 142:     glcd_FillScreen(0);
  3437  0016A6  EF7E  F00B         	goto	l3305
  3438  0016AA                     l3291:
  3439                           
  3440                           ;newmain.c: 143: ;newmain.c: 145:     glcd_PlotPixel(11,59,1);
  3441  0016AA  0484               	decf	132,w,c	;volatile
  3442  0016AC  A4D8               	btfss	status,2,c
  3443  0016AE  EF5B  F00B         	goto	u2021
  3444  0016B2  EF5D  F00B         	goto	u2020
  3445  0016B6                     u2021:
  3446  0016B6  EF6E  F00B         	goto	l3299
  3447  0016BA                     u2020:
  3448  0016BA                     
  3449                           ;newmain.c: 146:     glcd_PlotPixel(12,58,1);;newmain.c: 147:     glcd_PlotPixel(11,57,1
      +                          );
  3450  0016BA  EC38  F010         	call	_menuTetris	;wreg free
  3451  0016BE                     
  3452                           ;newmain.c: 148:     glcd_PlotPixel(10,56,1);
  3453  0016BE  0E15               	movlw	21
  3454  0016C0  6E1D               	movwf	(??_menu+1)^0,c
  3455  0016C2  0E4B               	movlw	75
  3456  0016C4  6E1C               	movwf	??_menu^0,c
  3457  0016C6  0EBE               	movlw	190
  3458  0016C8                     u3447:
  3459  0016C8  2EE8               	decfsz	wreg,f,c
  3460  0016CA  D7FE               	bra	u3447
  3461  0016CC  2E1C               	decfsz	??_menu^0,f,c
  3462  0016CE  D7FC               	bra	u3447
  3463  0016D0  2E1D               	decfsz	(??_menu+1)^0,f,c
  3464  0016D2  D7FA               	bra	u3447
  3465  0016D4  F000 F000          	nop2	
  3466  0016D8                     
  3467                           ;newmain.c: 149:     glcd_PlotPixel(11,56,1);
  3468  0016D8  EC89  F016         	call	_affMenu	;wreg free
  3469  0016DC                     l3299:
  3470                           
  3471                           ;newmain.c: 151:     glcd_PlotPixel(13,56,1);
  3472  0016DC  0E02               	movlw	2
  3473  0016DE  1884               	xorwf	132,w,c	;volatile
  3474  0016E0  A4D8               	btfss	status,2,c
  3475  0016E2  EF75  F00B         	goto	u2031
  3476  0016E6  EF77  F00B         	goto	u2030
  3477  0016EA                     u2031:
  3478  0016EA  EF7E  F00B         	goto	l3305
  3479  0016EE                     u2030:
  3480  0016EE                     
  3481                           ;newmain.c: 152:     glcd_PlotPixel(14,56,1);;newmain.c: 153:     glcd_PlotPixel(15,56,1
      +                          );
  3482  0016EE  0E00               	movlw	0
  3483  0016F0  EC88  F00B         	call	_glcd_FillScreen
  3484  0016F4                     
  3485                           ;newmain.c: 154:     glcd_PlotPixel(16,56,1);
  3486  0016F4  0E00               	movlw	0
  3487  0016F6  6E1F               	movwf	(menu@fin+1)^0,c
  3488  0016F8  0E01               	movlw	1
  3489  0016FA  6E1E               	movwf	menu@fin^0,c
  3490  0016FC                     l3305:
  3491                           
  3492                           ;newmain.c: 142:     glcd_FillScreen(0);
  3493  0016FC  501E               	movf	menu@fin^0,w,c
  3494  0016FE  101F               	iorwf	(menu@fin+1)^0,w,c
  3495  001700  B4D8               	btfsc	status,2,c
  3496  001702  EF85  F00B         	goto	u2041
  3497  001706  EF87  F00B         	goto	u2040
  3498  00170A                     u2041:
  3499  00170A  EF55  F00B         	goto	l3291
  3500  00170E                     u2040:
  3501  00170E  0012               	return		;funcret
  3502  001710                     __end_of_menu:
  3503                           	opt callstack 0
  3504                           
  3505 ;; *************** function _menuTetris *****************
  3506 ;; Defined at:
  3507 ;;		line 358 in file "newmain.c"
  3508 ;; Parameters:    Size  Location     Type
  3509 ;;		None
  3510 ;; Auto vars:     Size  Location     Type
  3511 ;;		None
  3512 ;; Return value:  Size  Location     Type
  3513 ;;                  1    wreg      void 
  3514 ;; Registers used:
  3515 ;;		wreg, status,2, status,0, prodl, prodh, cstack
  3516 ;; Tracked objects:
  3517 ;;		On entry : 0/0
  3518 ;;		On exit  : 0/0
  3519 ;;		Unchanged: 0/0
  3520 ;; Data sizes:     COMRAM   BANK0   BANK1   BANK4
  3521 ;;      Params:         0       0       0       0
  3522 ;;      Locals:         0       0       0       0
  3523 ;;      Temps:          0       0       0       0
  3524 ;;      Totals:         0       0       0       0
  3525 ;;Total ram usage:        0 bytes
  3526 ;; Hardware stack levels used:    1
  3527 ;; Hardware stack levels required when called:    4
  3528 ;; This function calls:
  3529 ;;		_glcd_FillScreen
  3530 ;;		_glcd_draw_cube
  3531 ;; This function is called by:
  3532 ;;		_menu
  3533 ;; This function uses a non-reentrant model
  3534 ;;
  3535                           
  3536                           	psect	text8
  3537  002070                     __ptext8:
  3538                           	opt callstack 0
  3539  002070                     _menuTetris:
  3540                           	opt callstack 25
  3541  002070  0E00               	movlw	0
  3542  002072  EC88  F00B         	call	_glcd_FillScreen
  3543                           
  3544                           ;newmain.c: 406:     glcd_draw_cube(1,5,1);
  3545  002076  0E05               	movlw	5
  3546  002078  6E19               	movwf	glcd_draw_cube@x^0,c
  3547  00207A  0E01               	movlw	1
  3548  00207C  6E1A               	movwf	glcd_draw_cube@color^0,c
  3549  00207E  0E01               	movlw	1
  3550  002080  ECB4  F00A         	call	_glcd_draw_cube
  3551                           
  3552                           ;newmain.c: 407:     glcd_draw_cube(2,5,1);
  3553  002084  0E05               	movlw	5
  3554  002086  6E19               	movwf	glcd_draw_cube@x^0,c
  3555  002088  0E01               	movlw	1
  3556  00208A  6E1A               	movwf	glcd_draw_cube@color^0,c
  3557  00208C  0E02               	movlw	2
  3558  00208E  ECB4  F00A         	call	_glcd_draw_cube
  3559                           
  3560                           ;newmain.c: 408:     glcd_draw_cube(3,5,1);
  3561  002092  0E05               	movlw	5
  3562  002094  6E19               	movwf	glcd_draw_cube@x^0,c
  3563  002096  0E01               	movlw	1
  3564  002098  6E1A               	movwf	glcd_draw_cube@color^0,c
  3565  00209A  0E03               	movlw	3
  3566  00209C  ECB4  F00A         	call	_glcd_draw_cube
  3567                           
  3568                           ;newmain.c: 409:     glcd_draw_cube(2,6,1);
  3569  0020A0  0E06               	movlw	6
  3570  0020A2  6E19               	movwf	glcd_draw_cube@x^0,c
  3571  0020A4  0E01               	movlw	1
  3572  0020A6  6E1A               	movwf	glcd_draw_cube@color^0,c
  3573  0020A8  0E02               	movlw	2
  3574  0020AA  ECB4  F00A         	call	_glcd_draw_cube
  3575                           
  3576                           ;newmain.c: 410:     glcd_draw_cube(2,7,1);
  3577  0020AE  0E07               	movlw	7
  3578  0020B0  6E19               	movwf	glcd_draw_cube@x^0,c
  3579  0020B2  0E01               	movlw	1
  3580  0020B4  6E1A               	movwf	glcd_draw_cube@color^0,c
  3581  0020B6  0E02               	movlw	2
  3582  0020B8  ECB4  F00A         	call	_glcd_draw_cube
  3583                           
  3584                           ;newmain.c: 411:     glcd_draw_cube(2,8,1);
  3585  0020BC  0E08               	movlw	8
  3586  0020BE  6E19               	movwf	glcd_draw_cube@x^0,c
  3587  0020C0  0E01               	movlw	1
  3588  0020C2  6E1A               	movwf	glcd_draw_cube@color^0,c
  3589  0020C4  0E02               	movlw	2
  3590  0020C6  ECB4  F00A         	call	_glcd_draw_cube
  3591                           
  3592                           ;newmain.c: 412:     glcd_draw_cube(2,9,1);
  3593  0020CA  0E09               	movlw	9
  3594  0020CC  6E19               	movwf	glcd_draw_cube@x^0,c
  3595  0020CE  0E01               	movlw	1
  3596  0020D0  6E1A               	movwf	glcd_draw_cube@color^0,c
  3597  0020D2  0E02               	movlw	2
  3598  0020D4  ECB4  F00A         	call	_glcd_draw_cube
  3599                           
  3600                           ;newmain.c: 415:     glcd_draw_cube(4,5,1);
  3601  0020D8  0E05               	movlw	5
  3602  0020DA  6E19               	movwf	glcd_draw_cube@x^0,c
  3603  0020DC  0E01               	movlw	1
  3604  0020DE  6E1A               	movwf	glcd_draw_cube@color^0,c
  3605  0020E0  0E04               	movlw	4
  3606  0020E2  ECB4  F00A         	call	_glcd_draw_cube
  3607                           
  3608                           ;newmain.c: 416:     glcd_draw_cube(5,5,1);
  3609  0020E6  0E05               	movlw	5
  3610  0020E8  6E19               	movwf	glcd_draw_cube@x^0,c
  3611  0020EA  0E01               	movlw	1
  3612  0020EC  6E1A               	movwf	glcd_draw_cube@color^0,c
  3613  0020EE  0E05               	movlw	5
  3614  0020F0  ECB4  F00A         	call	_glcd_draw_cube
  3615                           
  3616                           ;newmain.c: 417:     glcd_draw_cube(4,6,1);
  3617  0020F4  0E06               	movlw	6
  3618  0020F6  6E19               	movwf	glcd_draw_cube@x^0,c
  3619  0020F8  0E01               	movlw	1
  3620  0020FA  6E1A               	movwf	glcd_draw_cube@color^0,c
  3621  0020FC  0E04               	movlw	4
  3622  0020FE  ECB4  F00A         	call	_glcd_draw_cube
  3623                           
  3624                           ;newmain.c: 418:     glcd_draw_cube(4,7,1);
  3625  002102  0E07               	movlw	7
  3626  002104  6E19               	movwf	glcd_draw_cube@x^0,c
  3627  002106  0E01               	movlw	1
  3628  002108  6E1A               	movwf	glcd_draw_cube@color^0,c
  3629  00210A  0E04               	movlw	4
  3630  00210C  ECB4  F00A         	call	_glcd_draw_cube
  3631                           
  3632                           ;newmain.c: 419:     glcd_draw_cube(5,7,1);
  3633  002110  0E07               	movlw	7
  3634  002112  6E19               	movwf	glcd_draw_cube@x^0,c
  3635  002114  0E01               	movlw	1
  3636  002116  6E1A               	movwf	glcd_draw_cube@color^0,c
  3637  002118  0E05               	movlw	5
  3638  00211A  ECB4  F00A         	call	_glcd_draw_cube
  3639                           
  3640                           ;newmain.c: 420:     glcd_draw_cube(4,8,1);
  3641  00211E  0E08               	movlw	8
  3642  002120  6E19               	movwf	glcd_draw_cube@x^0,c
  3643  002122  0E01               	movlw	1
  3644  002124  6E1A               	movwf	glcd_draw_cube@color^0,c
  3645  002126  0E04               	movlw	4
  3646  002128  ECB4  F00A         	call	_glcd_draw_cube
  3647                           
  3648                           ;newmain.c: 421:     glcd_draw_cube(4,9,1);
  3649  00212C  0E09               	movlw	9
  3650  00212E  6E19               	movwf	glcd_draw_cube@x^0,c
  3651  002130  0E01               	movlw	1
  3652  002132  6E1A               	movwf	glcd_draw_cube@color^0,c
  3653  002134  0E04               	movlw	4
  3654  002136  ECB4  F00A         	call	_glcd_draw_cube
  3655                           
  3656                           ;newmain.c: 422:     glcd_draw_cube(5,9,1);
  3657  00213A  0E09               	movlw	9
  3658  00213C  6E19               	movwf	glcd_draw_cube@x^0,c
  3659  00213E  0E01               	movlw	1
  3660  002140  6E1A               	movwf	glcd_draw_cube@color^0,c
  3661  002142  0E05               	movlw	5
  3662  002144  ECB4  F00A         	call	_glcd_draw_cube
  3663                           
  3664                           ;newmain.c: 425:     glcd_draw_cube(6,5,1);
  3665  002148  0E05               	movlw	5
  3666  00214A  6E19               	movwf	glcd_draw_cube@x^0,c
  3667  00214C  0E01               	movlw	1
  3668  00214E  6E1A               	movwf	glcd_draw_cube@color^0,c
  3669  002150  0E06               	movlw	6
  3670  002152  ECB4  F00A         	call	_glcd_draw_cube
  3671                           
  3672                           ;newmain.c: 426:     glcd_draw_cube(7,5,1);
  3673  002156  0E05               	movlw	5
  3674  002158  6E19               	movwf	glcd_draw_cube@x^0,c
  3675  00215A  0E01               	movlw	1
  3676  00215C  6E1A               	movwf	glcd_draw_cube@color^0,c
  3677  00215E  0E07               	movlw	7
  3678  002160  ECB4  F00A         	call	_glcd_draw_cube
  3679                           
  3680                           ;newmain.c: 427:     glcd_draw_cube(8,5,1);
  3681  002164  0E05               	movlw	5
  3682  002166  6E19               	movwf	glcd_draw_cube@x^0,c
  3683  002168  0E01               	movlw	1
  3684  00216A  6E1A               	movwf	glcd_draw_cube@color^0,c
  3685  00216C  0E08               	movlw	8
  3686  00216E  ECB4  F00A         	call	_glcd_draw_cube
  3687                           
  3688                           ;newmain.c: 428:     glcd_draw_cube(7,6,1);
  3689  002172  0E06               	movlw	6
  3690  002174  6E19               	movwf	glcd_draw_cube@x^0,c
  3691  002176  0E01               	movlw	1
  3692  002178  6E1A               	movwf	glcd_draw_cube@color^0,c
  3693  00217A  0E07               	movlw	7
  3694  00217C  ECB4  F00A         	call	_glcd_draw_cube
  3695                           
  3696                           ;newmain.c: 429:     glcd_draw_cube(7,7,1);
  3697  002180  0E07               	movlw	7
  3698  002182  6E19               	movwf	glcd_draw_cube@x^0,c
  3699  002184  0E01               	movlw	1
  3700  002186  6E1A               	movwf	glcd_draw_cube@color^0,c
  3701  002188  0E07               	movlw	7
  3702  00218A  ECB4  F00A         	call	_glcd_draw_cube
  3703                           
  3704                           ;newmain.c: 430:     glcd_draw_cube(7,8,1);
  3705  00218E  0E08               	movlw	8
  3706  002190  6E19               	movwf	glcd_draw_cube@x^0,c
  3707  002192  0E01               	movlw	1
  3708  002194  6E1A               	movwf	glcd_draw_cube@color^0,c
  3709  002196  0E07               	movlw	7
  3710  002198  ECB4  F00A         	call	_glcd_draw_cube
  3711                           
  3712                           ;newmain.c: 431:     glcd_draw_cube(7,9,1);
  3713  00219C  0E09               	movlw	9
  3714  00219E  6E19               	movwf	glcd_draw_cube@x^0,c
  3715  0021A0  0E01               	movlw	1
  3716  0021A2  6E1A               	movwf	glcd_draw_cube@color^0,c
  3717  0021A4  0E07               	movlw	7
  3718  0021A6  ECB4  F00A         	call	_glcd_draw_cube
  3719                           
  3720                           ;newmain.c: 433:     glcd_draw_cube(9,5,1);
  3721  0021AA  0E05               	movlw	5
  3722  0021AC  6E19               	movwf	glcd_draw_cube@x^0,c
  3723  0021AE  0E01               	movlw	1
  3724  0021B0  6E1A               	movwf	glcd_draw_cube@color^0,c
  3725  0021B2  0E09               	movlw	9
  3726  0021B4  ECB4  F00A         	call	_glcd_draw_cube
  3727                           
  3728                           ;newmain.c: 434:     glcd_draw_cube(10,5,1);
  3729  0021B8  0E05               	movlw	5
  3730  0021BA  6E19               	movwf	glcd_draw_cube@x^0,c
  3731  0021BC  0E01               	movlw	1
  3732  0021BE  6E1A               	movwf	glcd_draw_cube@color^0,c
  3733  0021C0  0E0A               	movlw	10
  3734  0021C2  ECB4  F00A         	call	_glcd_draw_cube
  3735                           
  3736                           ;newmain.c: 435:     glcd_draw_cube(11,6,1);
  3737  0021C6  0E06               	movlw	6
  3738  0021C8  6E19               	movwf	glcd_draw_cube@x^0,c
  3739  0021CA  0E01               	movlw	1
  3740  0021CC  6E1A               	movwf	glcd_draw_cube@color^0,c
  3741  0021CE  0E0B               	movlw	11
  3742  0021D0  ECB4  F00A         	call	_glcd_draw_cube
  3743                           
  3744                           ;newmain.c: 436:     glcd_draw_cube(10,7,1);
  3745  0021D4  0E07               	movlw	7
  3746  0021D6  6E19               	movwf	glcd_draw_cube@x^0,c
  3747  0021D8  0E01               	movlw	1
  3748  0021DA  6E1A               	movwf	glcd_draw_cube@color^0,c
  3749  0021DC  0E0A               	movlw	10
  3750  0021DE  ECB4  F00A         	call	_glcd_draw_cube
  3751                           
  3752                           ;newmain.c: 437:     glcd_draw_cube(11,8,1);
  3753  0021E2  0E08               	movlw	8
  3754  0021E4  6E19               	movwf	glcd_draw_cube@x^0,c
  3755  0021E6  0E01               	movlw	1
  3756  0021E8  6E1A               	movwf	glcd_draw_cube@color^0,c
  3757  0021EA  0E0B               	movlw	11
  3758  0021EC  ECB4  F00A         	call	_glcd_draw_cube
  3759                           
  3760                           ;newmain.c: 438:     glcd_draw_cube(11,9,1);
  3761  0021F0  0E09               	movlw	9
  3762  0021F2  6E19               	movwf	glcd_draw_cube@x^0,c
  3763  0021F4  0E01               	movlw	1
  3764  0021F6  6E1A               	movwf	glcd_draw_cube@color^0,c
  3765  0021F8  0E0B               	movlw	11
  3766  0021FA  ECB4  F00A         	call	_glcd_draw_cube
  3767                           
  3768                           ;newmain.c: 439:     glcd_draw_cube(9,6,1);
  3769  0021FE  0E06               	movlw	6
  3770  002200  6E19               	movwf	glcd_draw_cube@x^0,c
  3771  002202  0E01               	movlw	1
  3772  002204  6E1A               	movwf	glcd_draw_cube@color^0,c
  3773  002206  0E09               	movlw	9
  3774  002208  ECB4  F00A         	call	_glcd_draw_cube
  3775                           
  3776                           ;newmain.c: 440:     glcd_draw_cube(9,7,1);
  3777  00220C  0E07               	movlw	7
  3778  00220E  6E19               	movwf	glcd_draw_cube@x^0,c
  3779  002210  0E01               	movlw	1
  3780  002212  6E1A               	movwf	glcd_draw_cube@color^0,c
  3781  002214  0E09               	movlw	9
  3782  002216  ECB4  F00A         	call	_glcd_draw_cube
  3783                           
  3784                           ;newmain.c: 441:     glcd_draw_cube(9,8,1);
  3785  00221A  0E08               	movlw	8
  3786  00221C  6E19               	movwf	glcd_draw_cube@x^0,c
  3787  00221E  0E01               	movlw	1
  3788  002220  6E1A               	movwf	glcd_draw_cube@color^0,c
  3789  002222  0E09               	movlw	9
  3790  002224  ECB4  F00A         	call	_glcd_draw_cube
  3791                           
  3792                           ;newmain.c: 442:     glcd_draw_cube(9,9,1);
  3793  002228  0E09               	movlw	9
  3794  00222A  6E19               	movwf	glcd_draw_cube@x^0,c
  3795  00222C  0E01               	movlw	1
  3796  00222E  6E1A               	movwf	glcd_draw_cube@color^0,c
  3797  002230  0E09               	movlw	9
  3798  002232  ECB4  F00A         	call	_glcd_draw_cube
  3799                           
  3800                           ;newmain.c: 445:     glcd_draw_cube(13,5,1);
  3801  002236  0E05               	movlw	5
  3802  002238  6E19               	movwf	glcd_draw_cube@x^0,c
  3803  00223A  0E01               	movlw	1
  3804  00223C  6E1A               	movwf	glcd_draw_cube@color^0,c
  3805  00223E  0E0D               	movlw	13
  3806  002240  ECB4  F00A         	call	_glcd_draw_cube
  3807                           
  3808                           ;newmain.c: 446:     glcd_draw_cube(13,6,1);
  3809  002244  0E06               	movlw	6
  3810  002246  6E19               	movwf	glcd_draw_cube@x^0,c
  3811  002248  0E01               	movlw	1
  3812  00224A  6E1A               	movwf	glcd_draw_cube@color^0,c
  3813  00224C  0E0D               	movlw	13
  3814  00224E  ECB4  F00A         	call	_glcd_draw_cube
  3815                           
  3816                           ;newmain.c: 447:     glcd_draw_cube(13,7,1);
  3817  002252  0E07               	movlw	7
  3818  002254  6E19               	movwf	glcd_draw_cube@x^0,c
  3819  002256  0E01               	movlw	1
  3820  002258  6E1A               	movwf	glcd_draw_cube@color^0,c
  3821  00225A  0E0D               	movlw	13
  3822  00225C  ECB4  F00A         	call	_glcd_draw_cube
  3823                           
  3824                           ;newmain.c: 448:     glcd_draw_cube(13,8,1);
  3825  002260  0E08               	movlw	8
  3826  002262  6E19               	movwf	glcd_draw_cube@x^0,c
  3827  002264  0E01               	movlw	1
  3828  002266  6E1A               	movwf	glcd_draw_cube@color^0,c
  3829  002268  0E0D               	movlw	13
  3830  00226A  ECB4  F00A         	call	_glcd_draw_cube
  3831                           
  3832                           ;newmain.c: 449:     glcd_draw_cube(13,9,1);
  3833  00226E  0E09               	movlw	9
  3834  002270  6E19               	movwf	glcd_draw_cube@x^0,c
  3835  002272  0E01               	movlw	1
  3836  002274  6E1A               	movwf	glcd_draw_cube@color^0,c
  3837  002276  0E0D               	movlw	13
  3838  002278  ECB4  F00A         	call	_glcd_draw_cube
  3839  00227C  0012               	return		;funcret
  3840  00227E                     __end_of_menuTetris:
  3841                           	opt callstack 0
  3842                           
  3843 ;; *************** function _affMenu *****************
  3844 ;; Defined at:
  3845 ;;		line 160 in file "newmain.c"
  3846 ;; Parameters:    Size  Location     Type
  3847 ;;		None
  3848 ;; Auto vars:     Size  Location     Type
  3849 ;;		None
  3850 ;; Return value:  Size  Location     Type
  3851 ;;                  1    wreg      void 
  3852 ;; Registers used:
  3853 ;;		wreg, status,2, status,0, prodl, prodh, cstack
  3854 ;; Tracked objects:
  3855 ;;		On entry : 0/0
  3856 ;;		On exit  : 0/0
  3857 ;;		Unchanged: 0/0
  3858 ;; Data sizes:     COMRAM   BANK0   BANK1   BANK4
  3859 ;;      Params:         0       0       0       0
  3860 ;;      Locals:         0       0       0       0
  3861 ;;      Temps:          0       0       0       0
  3862 ;;      Totals:         0       0       0       0
  3863 ;;Total ram usage:        0 bytes
  3864 ;; Hardware stack levels used:    1
  3865 ;; Hardware stack levels required when called:    2
  3866 ;; This function calls:
  3867 ;;		_glcd_FillScreen
  3868 ;;		_glcd_PlotPixel
  3869 ;; This function is called by:
  3870 ;;		_menu
  3871 ;; This function uses a non-reentrant model
  3872 ;;
  3873                           
  3874                           	psect	text9
  3875  002D12                     __ptext9:
  3876                           	opt callstack 0
  3877  002D12                     _affMenu:
  3878                           	opt callstack 27
  3879  002D12                     
  3880                           ;newmain.c: 162: 
  3881  002D12  0E00               	movlw	0
  3882  002D14  EC88  F00B         	call	_glcd_FillScreen
  3883  002D18                     
  3884                           ;newmain.c: 164:     glcd_PlotPixel(10,52,1);
  3885  002D18  0E3C               	movlw	60
  3886  002D1A  6E0B               	movwf	glcd_PlotPixel@ypos^0,c
  3887  002D1C  0E01               	movlw	1
  3888  002D1E  6E0C               	movwf	glcd_PlotPixel@color^0,c
  3889  002D20  0E0A               	movlw	10
  3890  002D22  EC71  F00E         	call	_glcd_PlotPixel
  3891  002D26                     
  3892                           ;newmain.c: 165:     glcd_PlotPixel(10,51,1);
  3893  002D26  0E3B               	movlw	59
  3894  002D28  6E0B               	movwf	glcd_PlotPixel@ypos^0,c
  3895  002D2A  0E01               	movlw	1
  3896  002D2C  6E0C               	movwf	glcd_PlotPixel@color^0,c
  3897  002D2E  0E0B               	movlw	11
  3898  002D30  EC71  F00E         	call	_glcd_PlotPixel
  3899  002D34                     
  3900                           ;newmain.c: 166:     glcd_PlotPixel(11,53,1);
  3901  002D34  0E3A               	movlw	58
  3902  002D36  6E0B               	movwf	glcd_PlotPixel@ypos^0,c
  3903  002D38  0E01               	movlw	1
  3904  002D3A  6E0C               	movwf	glcd_PlotPixel@color^0,c
  3905  002D3C  0E0C               	movlw	12
  3906  002D3E  EC71  F00E         	call	_glcd_PlotPixel
  3907  002D42                     
  3908                           ;newmain.c: 167:     glcd_PlotPixel(12,53,1);
  3909  002D42  0E39               	movlw	57
  3910  002D44  6E0B               	movwf	glcd_PlotPixel@ypos^0,c
  3911  002D46  0E01               	movlw	1
  3912  002D48  6E0C               	movwf	glcd_PlotPixel@color^0,c
  3913  002D4A  0E0B               	movlw	11
  3914  002D4C  EC71  F00E         	call	_glcd_PlotPixel
  3915  002D50                     
  3916                           ;newmain.c: 168:     glcd_PlotPixel(13,53,1);
  3917  002D50  0E38               	movlw	56
  3918  002D52  6E0B               	movwf	glcd_PlotPixel@ypos^0,c
  3919  002D54  0E01               	movlw	1
  3920  002D56  6E0C               	movwf	glcd_PlotPixel@color^0,c
  3921  002D58  0E0A               	movlw	10
  3922  002D5A  EC71  F00E         	call	_glcd_PlotPixel
  3923  002D5E                     
  3924                           ;newmain.c: 169:     glcd_PlotPixel(14,53,1);
  3925  002D5E  0E38               	movlw	56
  3926  002D60  6E0B               	movwf	glcd_PlotPixel@ypos^0,c
  3927  002D62  0E01               	movlw	1
  3928  002D64  6E0C               	movwf	glcd_PlotPixel@color^0,c
  3929  002D66  0E0B               	movlw	11
  3930  002D68  EC71  F00E         	call	_glcd_PlotPixel
  3931  002D6C                     
  3932                           ;newmain.c: 170:     glcd_PlotPixel(15,53,1);
  3933  002D6C  0E38               	movlw	56
  3934  002D6E  6E0B               	movwf	glcd_PlotPixel@ypos^0,c
  3935  002D70  0E01               	movlw	1
  3936  002D72  6E0C               	movwf	glcd_PlotPixel@color^0,c
  3937  002D74  0E0C               	movlw	12
  3938  002D76  EC71  F00E         	call	_glcd_PlotPixel
  3939  002D7A                     
  3940                           ;newmain.c: 171:     glcd_PlotPixel(16,53,1);
  3941  002D7A  0E38               	movlw	56
  3942  002D7C  6E0B               	movwf	glcd_PlotPixel@ypos^0,c
  3943  002D7E  0E01               	movlw	1
  3944  002D80  6E0C               	movwf	glcd_PlotPixel@color^0,c
  3945  002D82  0E0D               	movlw	13
  3946  002D84  EC71  F00E         	call	_glcd_PlotPixel
  3947  002D88                     
  3948                           ;newmain.c: 172:     glcd_PlotPixel(16,52,1);
  3949  002D88  0E38               	movlw	56
  3950  002D8A  6E0B               	movwf	glcd_PlotPixel@ypos^0,c
  3951  002D8C  0E01               	movlw	1
  3952  002D8E  6E0C               	movwf	glcd_PlotPixel@color^0,c
  3953  002D90  0E0E               	movlw	14
  3954  002D92  EC71  F00E         	call	_glcd_PlotPixel
  3955  002D96                     
  3956                           ;newmain.c: 173:     glcd_PlotPixel(16,51,1);
  3957  002D96  0E38               	movlw	56
  3958  002D98  6E0B               	movwf	glcd_PlotPixel@ypos^0,c
  3959  002D9A  0E01               	movlw	1
  3960  002D9C  6E0C               	movwf	glcd_PlotPixel@color^0,c
  3961  002D9E  0E0F               	movlw	15
  3962  002DA0  EC71  F00E         	call	_glcd_PlotPixel
  3963  002DA4                     
  3964                           ;newmain.c: 174:     glcd_PlotPixel(13,52,1);
  3965  002DA4  0E38               	movlw	56
  3966  002DA6  6E0B               	movwf	glcd_PlotPixel@ypos^0,c
  3967  002DA8  0E01               	movlw	1
  3968  002DAA  6E0C               	movwf	glcd_PlotPixel@color^0,c
  3969  002DAC  0E10               	movlw	16
  3970  002DAE  EC71  F00E         	call	_glcd_PlotPixel
  3971  002DB2                     
  3972                           ;newmain.c: 175: 
  3973  002DB2  0E3C               	movlw	60
  3974  002DB4  6E0B               	movwf	glcd_PlotPixel@ypos^0,c
  3975  002DB6  0E01               	movlw	1
  3976  002DB8  6E0C               	movwf	glcd_PlotPixel@color^0,c
  3977  002DBA  0E0B               	movlw	11
  3978  002DBC  EC71  F00E         	call	_glcd_PlotPixel
  3979  002DC0                     
  3980                           ;newmain.c: 176: 
  3981  002DC0  0E3C               	movlw	60
  3982  002DC2  6E0B               	movwf	glcd_PlotPixel@ypos^0,c
  3983  002DC4  0E01               	movlw	1
  3984  002DC6  6E0C               	movwf	glcd_PlotPixel@color^0,c
  3985  002DC8  0E0C               	movlw	12
  3986  002DCA  EC71  F00E         	call	_glcd_PlotPixel
  3987  002DCE                     
  3988                           ;newmain.c: 177:     glcd_PlotPixel(10,47,1);
  3989  002DCE  0E3C               	movlw	60
  3990  002DD0  6E0B               	movwf	glcd_PlotPixel@ypos^0,c
  3991  002DD2  0E01               	movlw	1
  3992  002DD4  6E0C               	movwf	glcd_PlotPixel@color^0,c
  3993  002DD6  0E0D               	movlw	13
  3994  002DD8  EC71  F00E         	call	_glcd_PlotPixel
  3995  002DDC                     
  3996                           ;newmain.c: 178:     glcd_PlotPixel(11,47,1);
  3997  002DDC  0E3C               	movlw	60
  3998  002DDE  6E0B               	movwf	glcd_PlotPixel@ypos^0,c
  3999  002DE0  0E01               	movlw	1
  4000  002DE2  6E0C               	movwf	glcd_PlotPixel@color^0,c
  4001  002DE4  0E0E               	movlw	14
  4002  002DE6  EC71  F00E         	call	_glcd_PlotPixel
  4003  002DEA                     
  4004                           ;newmain.c: 179:     glcd_PlotPixel(11,46,1);
  4005  002DEA  0E3C               	movlw	60
  4006  002DEC  6E0B               	movwf	glcd_PlotPixel@ypos^0,c
  4007  002DEE  0E01               	movlw	1
  4008  002DF0  6E0C               	movwf	glcd_PlotPixel@color^0,c
  4009  002DF2  0E0F               	movlw	15
  4010  002DF4  EC71  F00E         	call	_glcd_PlotPixel
  4011  002DF8                     
  4012                           ;newmain.c: 180:     glcd_PlotPixel(12,45,1);
  4013  002DF8  0E3C               	movlw	60
  4014  002DFA  6E0B               	movwf	glcd_PlotPixel@ypos^0,c
  4015  002DFC  0E01               	movlw	1
  4016  002DFE  6E0C               	movwf	glcd_PlotPixel@color^0,c
  4017  002E00  0E10               	movlw	16
  4018  002E02  EC71  F00E         	call	_glcd_PlotPixel
  4019  002E06                     
  4020                           ;newmain.c: 183:     glcd_PlotPixel(15,42,1);
  4021  002E06  0E35               	movlw	53
  4022  002E08  6E0B               	movwf	glcd_PlotPixel@ypos^0,c
  4023  002E0A  0E01               	movlw	1
  4024  002E0C  6E0C               	movwf	glcd_PlotPixel@color^0,c
  4025  002E0E  0E0A               	movlw	10
  4026  002E10  EC71  F00E         	call	_glcd_PlotPixel
  4027  002E14                     
  4028                           ;newmain.c: 184:     glcd_PlotPixel(12,47,1);
  4029  002E14  0E34               	movlw	52
  4030  002E16  6E0B               	movwf	glcd_PlotPixel@ypos^0,c
  4031  002E18  0E01               	movlw	1
  4032  002E1A  6E0C               	movwf	glcd_PlotPixel@color^0,c
  4033  002E1C  0E0A               	movlw	10
  4034  002E1E  EC71  F00E         	call	_glcd_PlotPixel
  4035  002E22                     
  4036                           ;newmain.c: 185:     glcd_PlotPixel(13,47,1);
  4037  002E22  0E33               	movlw	51
  4038  002E24  6E0B               	movwf	glcd_PlotPixel@ypos^0,c
  4039  002E26  0E01               	movlw	1
  4040  002E28  6E0C               	movwf	glcd_PlotPixel@color^0,c
  4041  002E2A  0E0A               	movlw	10
  4042  002E2C  EC71  F00E         	call	_glcd_PlotPixel
  4043  002E30                     
  4044                           ;newmain.c: 186:     glcd_PlotPixel(16,47,1);
  4045  002E30  0E35               	movlw	53
  4046  002E32  6E0B               	movwf	glcd_PlotPixel@ypos^0,c
  4047  002E34  0E01               	movlw	1
  4048  002E36  6E0C               	movwf	glcd_PlotPixel@color^0,c
  4049  002E38  0E0B               	movlw	11
  4050  002E3A  EC71  F00E         	call	_glcd_PlotPixel
  4051  002E3E                     
  4052                           ;newmain.c: 187:     glcd_PlotPixel(13,47,1);
  4053  002E3E  0E35               	movlw	53
  4054  002E40  6E0B               	movwf	glcd_PlotPixel@ypos^0,c
  4055  002E42  0E01               	movlw	1
  4056  002E44  6E0C               	movwf	glcd_PlotPixel@color^0,c
  4057  002E46  0E0C               	movlw	12
  4058  002E48  EC71  F00E         	call	_glcd_PlotPixel
  4059  002E4C                     
  4060                           ;newmain.c: 188:     glcd_PlotPixel(14,47,1);
  4061  002E4C  0E35               	movlw	53
  4062  002E4E  6E0B               	movwf	glcd_PlotPixel@ypos^0,c
  4063  002E50  0E01               	movlw	1
  4064  002E52  6E0C               	movwf	glcd_PlotPixel@color^0,c
  4065  002E54  0E0D               	movlw	13
  4066  002E56  EC71  F00E         	call	_glcd_PlotPixel
  4067  002E5A                     
  4068                           ;newmain.c: 189:     glcd_PlotPixel(15,47,1);
  4069  002E5A  0E35               	movlw	53
  4070  002E5C  6E0B               	movwf	glcd_PlotPixel@ypos^0,c
  4071  002E5E  0E01               	movlw	1
  4072  002E60  6E0C               	movwf	glcd_PlotPixel@color^0,c
  4073  002E62  0E0E               	movlw	14
  4074  002E64  EC71  F00E         	call	_glcd_PlotPixel
  4075  002E68                     
  4076                           ;newmain.c: 190:     glcd_PlotPixel(10,41,1);
  4077  002E68  0E35               	movlw	53
  4078  002E6A  6E0B               	movwf	glcd_PlotPixel@ypos^0,c
  4079  002E6C  0E01               	movlw	1
  4080  002E6E  6E0C               	movwf	glcd_PlotPixel@color^0,c
  4081  002E70  0E0F               	movlw	15
  4082  002E72  EC71  F00E         	call	_glcd_PlotPixel
  4083  002E76                     
  4084                           ;newmain.c: 191:     glcd_PlotPixel(11,41,1);
  4085  002E76  0E35               	movlw	53
  4086  002E78  6E0B               	movwf	glcd_PlotPixel@ypos^0,c
  4087  002E7A  0E01               	movlw	1
  4088  002E7C  6E0C               	movwf	glcd_PlotPixel@color^0,c
  4089  002E7E  0E10               	movlw	16
  4090  002E80  EC71  F00E         	call	_glcd_PlotPixel
  4091  002E84                     
  4092                           ;newmain.c: 192:     glcd_PlotPixel(12,41,1);
  4093  002E84  0E34               	movlw	52
  4094  002E86  6E0B               	movwf	glcd_PlotPixel@ypos^0,c
  4095  002E88  0E01               	movlw	1
  4096  002E8A  6E0C               	movwf	glcd_PlotPixel@color^0,c
  4097  002E8C  0E10               	movlw	16
  4098  002E8E  EC71  F00E         	call	_glcd_PlotPixel
  4099  002E92                     
  4100                           ;newmain.c: 193:     glcd_PlotPixel(13,41,1);
  4101  002E92  0E33               	movlw	51
  4102  002E94  6E0B               	movwf	glcd_PlotPixel@ypos^0,c
  4103  002E96  0E01               	movlw	1
  4104  002E98  6E0C               	movwf	glcd_PlotPixel@color^0,c
  4105  002E9A  0E10               	movlw	16
  4106  002E9C  EC71  F00E         	call	_glcd_PlotPixel
  4107  002EA0                     
  4108                           ;newmain.c: 194:     glcd_PlotPixel(14,41,1);
  4109  002EA0  0E34               	movlw	52
  4110  002EA2  6E0B               	movwf	glcd_PlotPixel@ypos^0,c
  4111  002EA4  0E01               	movlw	1
  4112  002EA6  6E0C               	movwf	glcd_PlotPixel@color^0,c
  4113  002EA8  0E0D               	movlw	13
  4114  002EAA  EC71  F00E         	call	_glcd_PlotPixel
  4115  002EAE                     
  4116                           ;newmain.c: 197: 
  4117  002EAE  0E2F               	movlw	47
  4118  002EB0  6E0B               	movwf	glcd_PlotPixel@ypos^0,c
  4119  002EB2  0E01               	movlw	1
  4120  002EB4  6E0C               	movwf	glcd_PlotPixel@color^0,c
  4121  002EB6  0E0A               	movlw	10
  4122  002EB8  EC71  F00E         	call	_glcd_PlotPixel
  4123  002EBC                     
  4124                           ;newmain.c: 198: 
  4125  002EBC  0E2F               	movlw	47
  4126  002EBE  6E0B               	movwf	glcd_PlotPixel@ypos^0,c
  4127  002EC0  0E01               	movlw	1
  4128  002EC2  6E0C               	movwf	glcd_PlotPixel@color^0,c
  4129  002EC4  0E0B               	movlw	11
  4130  002EC6  EC71  F00E         	call	_glcd_PlotPixel
  4131  002ECA                     
  4132                           ;newmain.c: 199:     glcd_PlotPixel(10,38,1);
  4133  002ECA  0E2E               	movlw	46
  4134  002ECC  6E0B               	movwf	glcd_PlotPixel@ypos^0,c
  4135  002ECE  0E01               	movlw	1
  4136  002ED0  6E0C               	movwf	glcd_PlotPixel@color^0,c
  4137  002ED2  0E0B               	movlw	11
  4138  002ED4  EC71  F00E         	call	_glcd_PlotPixel
  4139  002ED8                     
  4140                           ;newmain.c: 200:     glcd_PlotPixel(11,38,1);
  4141  002ED8  0E2D               	movlw	45
  4142  002EDA  6E0B               	movwf	glcd_PlotPixel@ypos^0,c
  4143  002EDC  0E01               	movlw	1
  4144  002EDE  6E0C               	movwf	glcd_PlotPixel@color^0,c
  4145  002EE0  0E0C               	movlw	12
  4146  002EE2  EC71  F00E         	call	_glcd_PlotPixel
  4147  002EE6                     
  4148                           ;newmain.c: 201:     glcd_PlotPixel(12,38,1);
  4149  002EE6  0E2C               	movlw	44
  4150  002EE8  6E0B               	movwf	glcd_PlotPixel@ypos^0,c
  4151  002EEA  0E01               	movlw	1
  4152  002EEC  6E0C               	movwf	glcd_PlotPixel@color^0,c
  4153  002EEE  0E0D               	movlw	13
  4154  002EF0  EC71  F00E         	call	_glcd_PlotPixel
  4155  002EF4                     
  4156                           ;newmain.c: 202:     glcd_PlotPixel(13,38,1);
  4157  002EF4  0E2B               	movlw	43
  4158  002EF6  6E0B               	movwf	glcd_PlotPixel@ypos^0,c
  4159  002EF8  0E01               	movlw	1
  4160  002EFA  6E0C               	movwf	glcd_PlotPixel@color^0,c
  4161  002EFC  0E0E               	movlw	14
  4162  002EFE  EC71  F00E         	call	_glcd_PlotPixel
  4163  002F02                     
  4164                           ;newmain.c: 203:     glcd_PlotPixel(14,38,1);
  4165  002F02  0E2A               	movlw	42
  4166  002F04  6E0B               	movwf	glcd_PlotPixel@ypos^0,c
  4167  002F06  0E01               	movlw	1
  4168  002F08  6E0C               	movwf	glcd_PlotPixel@color^0,c
  4169  002F0A  0E0F               	movlw	15
  4170  002F0C  EC71  F00E         	call	_glcd_PlotPixel
  4171  002F10                     
  4172                           ;newmain.c: 204:     glcd_PlotPixel(15,38,1);
  4173  002F10  0E2F               	movlw	47
  4174  002F12  6E0B               	movwf	glcd_PlotPixel@ypos^0,c
  4175  002F14  0E01               	movlw	1
  4176  002F16  6E0C               	movwf	glcd_PlotPixel@color^0,c
  4177  002F18  0E0C               	movlw	12
  4178  002F1A  EC71  F00E         	call	_glcd_PlotPixel
  4179  002F1E                     
  4180                           ;newmain.c: 205:     glcd_PlotPixel(16,38,1);
  4181  002F1E  0E2F               	movlw	47
  4182  002F20  6E0B               	movwf	glcd_PlotPixel@ypos^0,c
  4183  002F22  0E01               	movlw	1
  4184  002F24  6E0C               	movwf	glcd_PlotPixel@color^0,c
  4185  002F26  0E0D               	movlw	13
  4186  002F28  EC71  F00E         	call	_glcd_PlotPixel
  4187  002F2C                     
  4188                           ;newmain.c: 206:     glcd_PlotPixel(10,35,1);
  4189  002F2C  0E2F               	movlw	47
  4190  002F2E  6E0B               	movwf	glcd_PlotPixel@ypos^0,c
  4191  002F30  0E01               	movlw	1
  4192  002F32  6E0C               	movwf	glcd_PlotPixel@color^0,c
  4193  002F34  0E10               	movlw	16
  4194  002F36  EC71  F00E         	call	_glcd_PlotPixel
  4195  002F3A                     
  4196                           ;newmain.c: 207:     glcd_PlotPixel(11,35,1);
  4197  002F3A  0E2F               	movlw	47
  4198  002F3C  6E0B               	movwf	glcd_PlotPixel@ypos^0,c
  4199  002F3E  0E01               	movlw	1
  4200  002F40  6E0C               	movwf	glcd_PlotPixel@color^0,c
  4201  002F42  0E0D               	movlw	13
  4202  002F44  EC71  F00E         	call	_glcd_PlotPixel
  4203  002F48                     
  4204                           ;newmain.c: 208:     glcd_PlotPixel(12,35,1);
  4205  002F48  0E2F               	movlw	47
  4206  002F4A  6E0B               	movwf	glcd_PlotPixel@ypos^0,c
  4207  002F4C  0E01               	movlw	1
  4208  002F4E  6E0C               	movwf	glcd_PlotPixel@color^0,c
  4209  002F50  0E0E               	movlw	14
  4210  002F52  EC71  F00E         	call	_glcd_PlotPixel
  4211  002F56                     
  4212                           ;newmain.c: 209:     glcd_PlotPixel(13,35,1);
  4213  002F56  0E2F               	movlw	47
  4214  002F58  6E0B               	movwf	glcd_PlotPixel@ypos^0,c
  4215  002F5A  0E01               	movlw	1
  4216  002F5C  6E0C               	movwf	glcd_PlotPixel@color^0,c
  4217  002F5E  0E0F               	movlw	15
  4218  002F60  EC71  F00E         	call	_glcd_PlotPixel
  4219  002F64                     
  4220                           ;newmain.c: 210:     glcd_PlotPixel(14,35,1);
  4221  002F64  0E29               	movlw	41
  4222  002F66  6E0B               	movwf	glcd_PlotPixel@ypos^0,c
  4223  002F68  0E01               	movlw	1
  4224  002F6A  6E0C               	movwf	glcd_PlotPixel@color^0,c
  4225  002F6C  0E0A               	movlw	10
  4226  002F6E  EC71  F00E         	call	_glcd_PlotPixel
  4227  002F72                     
  4228                           ;newmain.c: 211:     glcd_PlotPixel(15,35,1);
  4229  002F72  0E29               	movlw	41
  4230  002F74  6E0B               	movwf	glcd_PlotPixel@ypos^0,c
  4231  002F76  0E01               	movlw	1
  4232  002F78  6E0C               	movwf	glcd_PlotPixel@color^0,c
  4233  002F7A  0E0B               	movlw	11
  4234  002F7C  EC71  F00E         	call	_glcd_PlotPixel
  4235  002F80                     
  4236                           ;newmain.c: 212:     glcd_PlotPixel(16,35,1);
  4237  002F80  0E29               	movlw	41
  4238  002F82  6E0B               	movwf	glcd_PlotPixel@ypos^0,c
  4239  002F84  0E01               	movlw	1
  4240  002F86  6E0C               	movwf	glcd_PlotPixel@color^0,c
  4241  002F88  0E0C               	movlw	12
  4242  002F8A  EC71  F00E         	call	_glcd_PlotPixel
  4243  002F8E                     
  4244                           ;newmain.c: 213:     glcd_PlotPixel(16,36,1);
  4245  002F8E  0E29               	movlw	41
  4246  002F90  6E0B               	movwf	glcd_PlotPixel@ypos^0,c
  4247  002F92  0E01               	movlw	1
  4248  002F94  6E0C               	movwf	glcd_PlotPixel@color^0,c
  4249  002F96  0E0D               	movlw	13
  4250  002F98  EC71  F00E         	call	_glcd_PlotPixel
  4251  002F9C                     
  4252                           ;newmain.c: 214:     glcd_PlotPixel(16,37,1);
  4253  002F9C  0E29               	movlw	41
  4254  002F9E  6E0B               	movwf	glcd_PlotPixel@ypos^0,c
  4255  002FA0  0E01               	movlw	1
  4256  002FA2  6E0C               	movwf	glcd_PlotPixel@color^0,c
  4257  002FA4  0E0E               	movlw	14
  4258  002FA6  EC71  F00E         	call	_glcd_PlotPixel
  4259  002FAA                     
  4260                           ;newmain.c: 215: 
  4261  002FAA  0E29               	movlw	41
  4262  002FAC  6E0B               	movwf	glcd_PlotPixel@ypos^0,c
  4263  002FAE  0E01               	movlw	1
  4264  002FB0  6E0C               	movwf	glcd_PlotPixel@color^0,c
  4265  002FB2  0E0F               	movlw	15
  4266  002FB4  EC71  F00E         	call	_glcd_PlotPixel
  4267  002FB8                     
  4268                           ;newmain.c: 216: 
  4269  002FB8  0E29               	movlw	41
  4270  002FBA  6E0B               	movwf	glcd_PlotPixel@ypos^0,c
  4271  002FBC  0E01               	movlw	1
  4272  002FBE  6E0C               	movwf	glcd_PlotPixel@color^0,c
  4273  002FC0  0E10               	movlw	16
  4274  002FC2  EC71  F00E         	call	_glcd_PlotPixel
  4275  002FC6                     
  4276                           ;newmain.c: 219:     glcd_PlotPixel(30,59,1);
  4277  002FC6  0E26               	movlw	38
  4278  002FC8  6E0B               	movwf	glcd_PlotPixel@ypos^0,c
  4279  002FCA  0E01               	movlw	1
  4280  002FCC  6E0C               	movwf	glcd_PlotPixel@color^0,c
  4281  002FCE  0E0A               	movlw	10
  4282  002FD0  EC71  F00E         	call	_glcd_PlotPixel
  4283  002FD4                     
  4284                           ;newmain.c: 220:     glcd_PlotPixel(30,58,1);
  4285  002FD4  0E26               	movlw	38
  4286  002FD6  6E0B               	movwf	glcd_PlotPixel@ypos^0,c
  4287  002FD8  0E01               	movlw	1
  4288  002FDA  6E0C               	movwf	glcd_PlotPixel@color^0,c
  4289  002FDC  0E0B               	movlw	11
  4290  002FDE  EC71  F00E         	call	_glcd_PlotPixel
  4291  002FE2                     
  4292                           ;newmain.c: 221:     glcd_PlotPixel(31,60,1);
  4293  002FE2  0E26               	movlw	38
  4294  002FE4  6E0B               	movwf	glcd_PlotPixel@ypos^0,c
  4295  002FE6  0E01               	movlw	1
  4296  002FE8  6E0C               	movwf	glcd_PlotPixel@color^0,c
  4297  002FEA  0E0C               	movlw	12
  4298  002FEC  EC71  F00E         	call	_glcd_PlotPixel
  4299  002FF0                     
  4300                           ;newmain.c: 222:     glcd_PlotPixel(32,60,1);
  4301  002FF0  0E26               	movlw	38
  4302  002FF2  6E0B               	movwf	glcd_PlotPixel@ypos^0,c
  4303  002FF4  0E01               	movlw	1
  4304  002FF6  6E0C               	movwf	glcd_PlotPixel@color^0,c
  4305  002FF8  0E0D               	movlw	13
  4306  002FFA  EC71  F00E         	call	_glcd_PlotPixel
  4307  002FFE                     
  4308                           ;newmain.c: 223:     glcd_PlotPixel(33,60,1);
  4309  002FFE  0E26               	movlw	38
  4310  003000  6E0B               	movwf	glcd_PlotPixel@ypos^0,c
  4311  003002  0E01               	movlw	1
  4312  003004  6E0C               	movwf	glcd_PlotPixel@color^0,c
  4313  003006  0E0E               	movlw	14
  4314  003008  EC71  F00E         	call	_glcd_PlotPixel
  4315  00300C                     
  4316                           ;newmain.c: 224:     glcd_PlotPixel(34,60,1);
  4317  00300C  0E26               	movlw	38
  4318  00300E  6E0B               	movwf	glcd_PlotPixel@ypos^0,c
  4319  003010  0E01               	movlw	1
  4320  003012  6E0C               	movwf	glcd_PlotPixel@color^0,c
  4321  003014  0E0F               	movlw	15
  4322  003016  EC71  F00E         	call	_glcd_PlotPixel
  4323  00301A                     
  4324                           ;newmain.c: 225:     glcd_PlotPixel(35,60,1);
  4325  00301A  0E26               	movlw	38
  4326  00301C  6E0B               	movwf	glcd_PlotPixel@ypos^0,c
  4327  00301E  0E01               	movlw	1
  4328  003020  6E0C               	movwf	glcd_PlotPixel@color^0,c
  4329  003022  0E10               	movlw	16
  4330  003024  EC71  F00E         	call	_glcd_PlotPixel
  4331  003028                     
  4332                           ;newmain.c: 226:     glcd_PlotPixel(36,60,1);
  4333  003028  0E23               	movlw	35
  4334  00302A  6E0B               	movwf	glcd_PlotPixel@ypos^0,c
  4335  00302C  0E01               	movlw	1
  4336  00302E  6E0C               	movwf	glcd_PlotPixel@color^0,c
  4337  003030  0E0A               	movlw	10
  4338  003032  EC71  F00E         	call	_glcd_PlotPixel
  4339  003036                     
  4340                           ;newmain.c: 227:     glcd_PlotPixel(30,57,1);
  4341  003036  0E23               	movlw	35
  4342  003038  6E0B               	movwf	glcd_PlotPixel@ypos^0,c
  4343  00303A  0E01               	movlw	1
  4344  00303C  6E0C               	movwf	glcd_PlotPixel@color^0,c
  4345  00303E  0E0B               	movlw	11
  4346  003040  EC71  F00E         	call	_glcd_PlotPixel
  4347  003044                     
  4348                           ;newmain.c: 228:     glcd_PlotPixel(31,57,1);
  4349  003044  0E23               	movlw	35
  4350  003046  6E0B               	movwf	glcd_PlotPixel@ypos^0,c
  4351  003048  0E01               	movlw	1
  4352  00304A  6E0C               	movwf	glcd_PlotPixel@color^0,c
  4353  00304C  0E0C               	movlw	12
  4354  00304E  EC71  F00E         	call	_glcd_PlotPixel
  4355  003052                     
  4356                           ;newmain.c: 229:     glcd_PlotPixel(32,57,1);
  4357  003052  0E23               	movlw	35
  4358  003054  6E0B               	movwf	glcd_PlotPixel@ypos^0,c
  4359  003056  0E01               	movlw	1
  4360  003058  6E0C               	movwf	glcd_PlotPixel@color^0,c
  4361  00305A  0E0D               	movlw	13
  4362  00305C  EC71  F00E         	call	_glcd_PlotPixel
  4363  003060                     
  4364                           ;newmain.c: 230:     glcd_PlotPixel(33,57,1);
  4365  003060  0E23               	movlw	35
  4366  003062  6E0B               	movwf	glcd_PlotPixel@ypos^0,c
  4367  003064  0E01               	movlw	1
  4368  003066  6E0C               	movwf	glcd_PlotPixel@color^0,c
  4369  003068  0E0E               	movlw	14
  4370  00306A  EC71  F00E         	call	_glcd_PlotPixel
  4371  00306E                     
  4372                           ;newmain.c: 231:     glcd_PlotPixel(34,57,1);
  4373  00306E  0E23               	movlw	35
  4374  003070  6E0B               	movwf	glcd_PlotPixel@ypos^0,c
  4375  003072  0E01               	movlw	1
  4376  003074  6E0C               	movwf	glcd_PlotPixel@color^0,c
  4377  003076  0E0F               	movlw	15
  4378  003078  EC71  F00E         	call	_glcd_PlotPixel
  4379  00307C                     
  4380                           ;newmain.c: 232:     glcd_PlotPixel(35,57,1);
  4381  00307C  0E23               	movlw	35
  4382  00307E  6E0B               	movwf	glcd_PlotPixel@ypos^0,c
  4383  003080  0E01               	movlw	1
  4384  003082  6E0C               	movwf	glcd_PlotPixel@color^0,c
  4385  003084  0E10               	movlw	16
  4386  003086  EC71  F00E         	call	_glcd_PlotPixel
  4387  00308A                     
  4388                           ;newmain.c: 233:     glcd_PlotPixel(36,57,1);
  4389  00308A  0E24               	movlw	36
  4390  00308C  6E0B               	movwf	glcd_PlotPixel@ypos^0,c
  4391  00308E  0E01               	movlw	1
  4392  003090  6E0C               	movwf	glcd_PlotPixel@color^0,c
  4393  003092  0E10               	movlw	16
  4394  003094  EC71  F00E         	call	_glcd_PlotPixel
  4395  003098                     
  4396                           ;newmain.c: 234:     glcd_PlotPixel(36,58,1);
  4397  003098  0E25               	movlw	37
  4398  00309A  6E0B               	movwf	glcd_PlotPixel@ypos^0,c
  4399  00309C  0E01               	movlw	1
  4400  00309E  6E0C               	movwf	glcd_PlotPixel@color^0,c
  4401  0030A0  0E10               	movlw	16
  4402  0030A2  EC71  F00E         	call	_glcd_PlotPixel
  4403  0030A6                     
  4404                           ;newmain.c: 238:     glcd_PlotPixel(30,48,1);
  4405  0030A6  0E3C               	movlw	60
  4406  0030A8  6E0B               	movwf	glcd_PlotPixel@ypos^0,c
  4407  0030AA  0E01               	movlw	1
  4408  0030AC  6E0C               	movwf	glcd_PlotPixel@color^0,c
  4409  0030AE  0E1E               	movlw	30
  4410  0030B0  EC71  F00E         	call	_glcd_PlotPixel
  4411  0030B4                     
  4412                           ;newmain.c: 239:     glcd_PlotPixel(30,47,1);
  4413  0030B4  0E3B               	movlw	59
  4414  0030B6  6E0B               	movwf	glcd_PlotPixel@ypos^0,c
  4415  0030B8  0E01               	movlw	1
  4416  0030BA  6E0C               	movwf	glcd_PlotPixel@color^0,c
  4417  0030BC  0E1E               	movlw	30
  4418  0030BE  EC71  F00E         	call	_glcd_PlotPixel
  4419  0030C2                     
  4420                           ;newmain.c: 240:     glcd_PlotPixel(30,46,1);
  4421  0030C2  0E3A               	movlw	58
  4422  0030C4  6E0B               	movwf	glcd_PlotPixel@ypos^0,c
  4423  0030C6  0E01               	movlw	1
  4424  0030C8  6E0C               	movwf	glcd_PlotPixel@color^0,c
  4425  0030CA  0E1E               	movlw	30
  4426  0030CC  EC71  F00E         	call	_glcd_PlotPixel
  4427  0030D0                     
  4428                           ;newmain.c: 241:     glcd_PlotPixel(31,45,1);
  4429  0030D0  0E3C               	movlw	60
  4430  0030D2  6E0B               	movwf	glcd_PlotPixel@ypos^0,c
  4431  0030D4  0E01               	movlw	1
  4432  0030D6  6E0C               	movwf	glcd_PlotPixel@color^0,c
  4433  0030D8  0E1F               	movlw	31
  4434  0030DA  EC71  F00E         	call	_glcd_PlotPixel
  4435  0030DE                     
  4436                           ;newmain.c: 242:     glcd_PlotPixel(32,45,1);
  4437  0030DE  0E3C               	movlw	60
  4438  0030E0  6E0B               	movwf	glcd_PlotPixel@ypos^0,c
  4439  0030E2  0E01               	movlw	1
  4440  0030E4  6E0C               	movwf	glcd_PlotPixel@color^0,c
  4441  0030E6  0E20               	movlw	32
  4442  0030E8  EC71  F00E         	call	_glcd_PlotPixel
  4443  0030EC                     
  4444                           ;newmain.c: 243:     glcd_PlotPixel(33,45,1);
  4445  0030EC  0E3C               	movlw	60
  4446  0030EE  6E0B               	movwf	glcd_PlotPixel@ypos^0,c
  4447  0030F0  0E01               	movlw	1
  4448  0030F2  6E0C               	movwf	glcd_PlotPixel@color^0,c
  4449  0030F4  0E21               	movlw	33
  4450  0030F6  EC71  F00E         	call	_glcd_PlotPixel
  4451  0030FA                     
  4452                           ;newmain.c: 244:     glcd_PlotPixel(33,46,1);
  4453  0030FA  0E3C               	movlw	60
  4454  0030FC  6E0B               	movwf	glcd_PlotPixel@ypos^0,c
  4455  0030FE  0E01               	movlw	1
  4456  003100  6E0C               	movwf	glcd_PlotPixel@color^0,c
  4457  003102  0E22               	movlw	34
  4458  003104  EC71  F00E         	call	_glcd_PlotPixel
  4459  003108                     
  4460                           ;newmain.c: 245:     glcd_PlotPixel(33,47,1);
  4461  003108  0E3C               	movlw	60
  4462  00310A  6E0B               	movwf	glcd_PlotPixel@ypos^0,c
  4463  00310C  0E01               	movlw	1
  4464  00310E  6E0C               	movwf	glcd_PlotPixel@color^0,c
  4465  003110  0E23               	movlw	35
  4466  003112  EC71  F00E         	call	_glcd_PlotPixel
  4467  003116                     
  4468                           ;newmain.c: 246:     glcd_PlotPixel(34,47,1);
  4469  003116  0E3C               	movlw	60
  4470  003118  6E0B               	movwf	glcd_PlotPixel@ypos^0,c
  4471  00311A  0E01               	movlw	1
  4472  00311C  6E0C               	movwf	glcd_PlotPixel@color^0,c
  4473  00311E  0E24               	movlw	36
  4474  003120  EC71  F00E         	call	_glcd_PlotPixel
  4475  003124                     
  4476                           ;newmain.c: 247:     glcd_PlotPixel(35,46,1);
  4477  003124  0E39               	movlw	57
  4478  003126  6E0B               	movwf	glcd_PlotPixel@ypos^0,c
  4479  003128  0E01               	movlw	1
  4480  00312A  6E0C               	movwf	glcd_PlotPixel@color^0,c
  4481  00312C  0E1E               	movlw	30
  4482  00312E  EC71  F00E         	call	_glcd_PlotPixel
  4483  003132                     
  4484                           ;newmain.c: 248:     glcd_PlotPixel(36,45,1);
  4485  003132  0E39               	movlw	57
  4486  003134  6E0B               	movwf	glcd_PlotPixel@ypos^0,c
  4487  003136  0E01               	movlw	1
  4488  003138  6E0C               	movwf	glcd_PlotPixel@color^0,c
  4489  00313A  0E1F               	movlw	31
  4490  00313C  EC71  F00E         	call	_glcd_PlotPixel
  4491  003140                     
  4492                           ;newmain.c: 249:     glcd_PlotPixel(31,48,1);
  4493  003140  0E39               	movlw	57
  4494  003142  6E0B               	movwf	glcd_PlotPixel@ypos^0,c
  4495  003144  0E01               	movlw	1
  4496  003146  6E0C               	movwf	glcd_PlotPixel@color^0,c
  4497  003148  0E20               	movlw	32
  4498  00314A  EC71  F00E         	call	_glcd_PlotPixel
  4499  00314E                     
  4500                           ;newmain.c: 250:     glcd_PlotPixel(32,48,1);
  4501  00314E  0E39               	movlw	57
  4502  003150  6E0B               	movwf	glcd_PlotPixel@ypos^0,c
  4503  003152  0E01               	movlw	1
  4504  003154  6E0C               	movwf	glcd_PlotPixel@color^0,c
  4505  003156  0E21               	movlw	33
  4506  003158  EC71  F00E         	call	_glcd_PlotPixel
  4507  00315C                     
  4508                           ;newmain.c: 251:     glcd_PlotPixel(33,48,1);
  4509  00315C  0E39               	movlw	57
  4510  00315E  6E0B               	movwf	glcd_PlotPixel@ypos^0,c
  4511  003160  0E01               	movlw	1
  4512  003162  6E0C               	movwf	glcd_PlotPixel@color^0,c
  4513  003164  0E22               	movlw	34
  4514  003166  EC71  F00E         	call	_glcd_PlotPixel
  4515  00316A                     
  4516                           ;newmain.c: 252:     glcd_PlotPixel(34,48,1);
  4517  00316A  0E39               	movlw	57
  4518  00316C  6E0B               	movwf	glcd_PlotPixel@ypos^0,c
  4519  00316E  0E01               	movlw	1
  4520  003170  6E0C               	movwf	glcd_PlotPixel@color^0,c
  4521  003172  0E23               	movlw	35
  4522  003174  EC71  F00E         	call	_glcd_PlotPixel
  4523  003178                     
  4524                           ;newmain.c: 253:     glcd_PlotPixel(35,48,1);
  4525  003178  0E39               	movlw	57
  4526  00317A  6E0B               	movwf	glcd_PlotPixel@ypos^0,c
  4527  00317C  0E01               	movlw	1
  4528  00317E  6E0C               	movwf	glcd_PlotPixel@color^0,c
  4529  003180  0E24               	movlw	36
  4530  003182  EC71  F00E         	call	_glcd_PlotPixel
  4531  003186                     
  4532                           ;newmain.c: 254:     glcd_PlotPixel(36,48,1);
  4533  003186  0E3A               	movlw	58
  4534  003188  6E0B               	movwf	glcd_PlotPixel@ypos^0,c
  4535  00318A  0E01               	movlw	1
  4536  00318C  6E0C               	movwf	glcd_PlotPixel@color^0,c
  4537  00318E  0E24               	movlw	36
  4538  003190  EC71  F00E         	call	_glcd_PlotPixel
  4539  003194                     
  4540                           ;newmain.c: 255: 
  4541  003194  0E3B               	movlw	59
  4542  003196  6E0B               	movwf	glcd_PlotPixel@ypos^0,c
  4543  003198  0E01               	movlw	1
  4544  00319A  6E0C               	movwf	glcd_PlotPixel@color^0,c
  4545  00319C  0E24               	movlw	36
  4546  00319E  EC71  F00E         	call	_glcd_PlotPixel
  4547  0031A2                     
  4548                           ;newmain.c: 258:     glcd_PlotPixel(30,42,1);
  4549  0031A2  0E30               	movlw	48
  4550  0031A4  6E0B               	movwf	glcd_PlotPixel@ypos^0,c
  4551  0031A6  0E01               	movlw	1
  4552  0031A8  6E0C               	movwf	glcd_PlotPixel@color^0,c
  4553  0031AA  0E1E               	movlw	30
  4554  0031AC  EC71  F00E         	call	_glcd_PlotPixel
  4555  0031B0                     
  4556                           ;newmain.c: 259:     glcd_PlotPixel(30,41,1);
  4557  0031B0  0E2F               	movlw	47
  4558  0031B2  6E0B               	movwf	glcd_PlotPixel@ypos^0,c
  4559  0031B4  0E01               	movlw	1
  4560  0031B6  6E0C               	movwf	glcd_PlotPixel@color^0,c
  4561  0031B8  0E1E               	movlw	30
  4562  0031BA  EC71  F00E         	call	_glcd_PlotPixel
  4563  0031BE                     
  4564                           ;newmain.c: 260:     glcd_PlotPixel(31,43,1);
  4565  0031BE  0E2E               	movlw	46
  4566  0031C0  6E0B               	movwf	glcd_PlotPixel@ypos^0,c
  4567  0031C2  0E01               	movlw	1
  4568  0031C4  6E0C               	movwf	glcd_PlotPixel@color^0,c
  4569  0031C6  0E1E               	movlw	30
  4570  0031C8  EC71  F00E         	call	_glcd_PlotPixel
  4571  0031CC                     
  4572                           ;newmain.c: 261:     glcd_PlotPixel(32,43,1);
  4573  0031CC  0E2D               	movlw	45
  4574  0031CE  6E0B               	movwf	glcd_PlotPixel@ypos^0,c
  4575  0031D0  0E01               	movlw	1
  4576  0031D2  6E0C               	movwf	glcd_PlotPixel@color^0,c
  4577  0031D4  0E1F               	movlw	31
  4578  0031D6  EC71  F00E         	call	_glcd_PlotPixel
  4579  0031DA                     
  4580                           ;newmain.c: 262:     glcd_PlotPixel(33,43,1);
  4581  0031DA  0E2D               	movlw	45
  4582  0031DC  6E0B               	movwf	glcd_PlotPixel@ypos^0,c
  4583  0031DE  0E01               	movlw	1
  4584  0031E0  6E0C               	movwf	glcd_PlotPixel@color^0,c
  4585  0031E2  0E20               	movlw	32
  4586  0031E4  EC71  F00E         	call	_glcd_PlotPixel
  4587  0031E8                     
  4588                           ;newmain.c: 263:     glcd_PlotPixel(34,43,1);
  4589  0031E8  0E2D               	movlw	45
  4590  0031EA  6E0B               	movwf	glcd_PlotPixel@ypos^0,c
  4591  0031EC  0E01               	movlw	1
  4592  0031EE  6E0C               	movwf	glcd_PlotPixel@color^0,c
  4593  0031F0  0E21               	movlw	33
  4594  0031F2  EC71  F00E         	call	_glcd_PlotPixel
  4595  0031F6                     
  4596                           ;newmain.c: 264:     glcd_PlotPixel(35,43,1);
  4597  0031F6  0E2E               	movlw	46
  4598  0031F8  6E0B               	movwf	glcd_PlotPixel@ypos^0,c
  4599  0031FA  0E01               	movlw	1
  4600  0031FC  6E0C               	movwf	glcd_PlotPixel@color^0,c
  4601  0031FE  0E21               	movlw	33
  4602  003200  EC71  F00E         	call	_glcd_PlotPixel
  4603  003204                     
  4604                           ;newmain.c: 265:     glcd_PlotPixel(36,43,1);
  4605  003204  0E2F               	movlw	47
  4606  003206  6E0B               	movwf	glcd_PlotPixel@ypos^0,c
  4607  003208  0E01               	movlw	1
  4608  00320A  6E0C               	movwf	glcd_PlotPixel@color^0,c
  4609  00320C  0E21               	movlw	33
  4610  00320E  EC71  F00E         	call	_glcd_PlotPixel
  4611  003212                     
  4612                           ;newmain.c: 266:     glcd_PlotPixel(36,42,1);
  4613  003212  0E2F               	movlw	47
  4614  003214  6E0B               	movwf	glcd_PlotPixel@ypos^0,c
  4615  003216  0E01               	movlw	1
  4616  003218  6E0C               	movwf	glcd_PlotPixel@color^0,c
  4617  00321A  0E22               	movlw	34
  4618  00321C  EC71  F00E         	call	_glcd_PlotPixel
  4619  003220                     
  4620                           ;newmain.c: 267:     glcd_PlotPixel(36,41,1);
  4621  003220  0E2E               	movlw	46
  4622  003222  6E0B               	movwf	glcd_PlotPixel@ypos^0,c
  4623  003224  0E01               	movlw	1
  4624  003226  6E0C               	movwf	glcd_PlotPixel@color^0,c
  4625  003228  0E23               	movlw	35
  4626  00322A  EC71  F00E         	call	_glcd_PlotPixel
  4627  00322E                     
  4628                           ;newmain.c: 268:     glcd_PlotPixel(33,42,1);
  4629  00322E  0E2D               	movlw	45
  4630  003230  6E0B               	movwf	glcd_PlotPixel@ypos^0,c
  4631  003232  0E01               	movlw	1
  4632  003234  6E0C               	movwf	glcd_PlotPixel@color^0,c
  4633  003236  0E24               	movlw	36
  4634  003238  EC71  F00E         	call	_glcd_PlotPixel
  4635  00323C                     
  4636                           ;newmain.c: 269: 
  4637  00323C  0E30               	movlw	48
  4638  00323E  6E0B               	movwf	glcd_PlotPixel@ypos^0,c
  4639  003240  0E01               	movlw	1
  4640  003242  6E0C               	movwf	glcd_PlotPixel@color^0,c
  4641  003244  0E1F               	movlw	31
  4642  003246  EC71  F00E         	call	_glcd_PlotPixel
  4643  00324A                     
  4644                           ;newmain.c: 270: 
  4645  00324A  0E30               	movlw	48
  4646  00324C  6E0B               	movwf	glcd_PlotPixel@ypos^0,c
  4647  00324E  0E01               	movlw	1
  4648  003250  6E0C               	movwf	glcd_PlotPixel@color^0,c
  4649  003252  0E20               	movlw	32
  4650  003254  EC71  F00E         	call	_glcd_PlotPixel
  4651  003258                     
  4652                           ;newmain.c: 271:     glcd_PlotPixel(30,38,1);
  4653  003258  0E30               	movlw	48
  4654  00325A  6E0B               	movwf	glcd_PlotPixel@ypos^0,c
  4655  00325C  0E01               	movlw	1
  4656  00325E  6E0C               	movwf	glcd_PlotPixel@color^0,c
  4657  003260  0E21               	movlw	33
  4658  003262  EC71  F00E         	call	_glcd_PlotPixel
  4659  003266                     
  4660                           ;newmain.c: 272:     glcd_PlotPixel(31,38,1);
  4661  003266  0E30               	movlw	48
  4662  003268  6E0B               	movwf	glcd_PlotPixel@ypos^0,c
  4663  00326A  0E01               	movlw	1
  4664  00326C  6E0C               	movwf	glcd_PlotPixel@color^0,c
  4665  00326E  0E22               	movlw	34
  4666  003270  EC71  F00E         	call	_glcd_PlotPixel
  4667  003274                     
  4668                           ;newmain.c: 273:     glcd_PlotPixel(32,38,1);
  4669  003274  0E30               	movlw	48
  4670  003276  6E0B               	movwf	glcd_PlotPixel@ypos^0,c
  4671  003278  0E01               	movlw	1
  4672  00327A  6E0C               	movwf	glcd_PlotPixel@color^0,c
  4673  00327C  0E23               	movlw	35
  4674  00327E  EC71  F00E         	call	_glcd_PlotPixel
  4675  003282                     
  4676                           ;newmain.c: 274:     glcd_PlotPixel(33,38,1);
  4677  003282  0E30               	movlw	48
  4678  003284  6E0B               	movwf	glcd_PlotPixel@ypos^0,c
  4679  003286  0E01               	movlw	1
  4680  003288  6E0C               	movwf	glcd_PlotPixel@color^0,c
  4681  00328A  0E24               	movlw	36
  4682  00328C  EC71  F00E         	call	_glcd_PlotPixel
  4683  003290                     
  4684                           ;newmain.c: 277:     glcd_PlotPixel(36,37,1);
  4685  003290  0E2B               	movlw	43
  4686  003292  6E0B               	movwf	glcd_PlotPixel@ypos^0,c
  4687  003294  0E01               	movlw	1
  4688  003296  6E0C               	movwf	glcd_PlotPixel@color^0,c
  4689  003298  0E1E               	movlw	30
  4690  00329A  EC71  F00E         	call	_glcd_PlotPixel
  4691  00329E                     
  4692                           ;newmain.c: 278: 
  4693  00329E  0E2A               	movlw	42
  4694  0032A0  6E0B               	movwf	glcd_PlotPixel@ypos^0,c
  4695  0032A2  0E01               	movlw	1
  4696  0032A4  6E0C               	movwf	glcd_PlotPixel@color^0,c
  4697  0032A6  0E1E               	movlw	30
  4698  0032A8  EC71  F00E         	call	_glcd_PlotPixel
  4699  0032AC                     
  4700                           ;newmain.c: 279: 
  4701  0032AC  0E29               	movlw	41
  4702  0032AE  6E0B               	movwf	glcd_PlotPixel@ypos^0,c
  4703  0032B0  0E01               	movlw	1
  4704  0032B2  6E0C               	movwf	glcd_PlotPixel@color^0,c
  4705  0032B4  0E1E               	movlw	30
  4706  0032B6  EC71  F00E         	call	_glcd_PlotPixel
  4707  0032BA                     
  4708                           ;newmain.c: 280: 
  4709  0032BA  0E2B               	movlw	43
  4710  0032BC  6E0B               	movwf	glcd_PlotPixel@ypos^0,c
  4711  0032BE  0E01               	movlw	1
  4712  0032C0  6E0C               	movwf	glcd_PlotPixel@color^0,c
  4713  0032C2  0E1F               	movlw	31
  4714  0032C4  EC71  F00E         	call	_glcd_PlotPixel
  4715  0032C8                     
  4716                           ;newmain.c: 281:     glcd_PlotPixel(41,60,1);
  4717  0032C8  0E2B               	movlw	43
  4718  0032CA  6E0B               	movwf	glcd_PlotPixel@ypos^0,c
  4719  0032CC  0E01               	movlw	1
  4720  0032CE  6E0C               	movwf	glcd_PlotPixel@color^0,c
  4721  0032D0  0E20               	movlw	32
  4722  0032D2  EC71  F00E         	call	_glcd_PlotPixel
  4723  0032D6                     
  4724                           ;newmain.c: 282:     glcd_PlotPixel(40,59,1);
  4725  0032D6  0E2B               	movlw	43
  4726  0032D8  6E0B               	movwf	glcd_PlotPixel@ypos^0,c
  4727  0032DA  0E01               	movlw	1
  4728  0032DC  6E0C               	movwf	glcd_PlotPixel@color^0,c
  4729  0032DE  0E21               	movlw	33
  4730  0032E0  EC71  F00E         	call	_glcd_PlotPixel
  4731  0032E4                     
  4732                           ;newmain.c: 283:     glcd_PlotPixel(41,59,1);
  4733  0032E4  0E2B               	movlw	43
  4734  0032E6  6E0B               	movwf	glcd_PlotPixel@ypos^0,c
  4735  0032E8  0E01               	movlw	1
  4736  0032EA  6E0C               	movwf	glcd_PlotPixel@color^0,c
  4737  0032EC  0E22               	movlw	34
  4738  0032EE  EC71  F00E         	call	_glcd_PlotPixel
  4739  0032F2                     
  4740                           ;newmain.c: 284:     glcd_PlotPixel(42,59,1);
  4741  0032F2  0E2B               	movlw	43
  4742  0032F4  6E0B               	movwf	glcd_PlotPixel@ypos^0,c
  4743  0032F6  0E01               	movlw	1
  4744  0032F8  6E0C               	movwf	glcd_PlotPixel@color^0,c
  4745  0032FA  0E23               	movlw	35
  4746  0032FC  EC71  F00E         	call	_glcd_PlotPixel
  4747  003300                     
  4748                           ;newmain.c: 285:     glcd_PlotPixel(43,59,1);
  4749  003300  0E2B               	movlw	43
  4750  003302  6E0B               	movwf	glcd_PlotPixel@ypos^0,c
  4751  003304  0E01               	movlw	1
  4752  003306  6E0C               	movwf	glcd_PlotPixel@color^0,c
  4753  003308  0E24               	movlw	36
  4754  00330A  EC71  F00E         	call	_glcd_PlotPixel
  4755  00330E                     
  4756                           ;newmain.c: 286:     glcd_PlotPixel(44,59,1);
  4757  00330E  0E2A               	movlw	42
  4758  003310  6E0B               	movwf	glcd_PlotPixel@ypos^0,c
  4759  003312  0E01               	movlw	1
  4760  003314  6E0C               	movwf	glcd_PlotPixel@color^0,c
  4761  003316  0E24               	movlw	36
  4762  003318  EC71  F00E         	call	_glcd_PlotPixel
  4763  00331C                     
  4764                           ;newmain.c: 287:     glcd_PlotPixel(45,59,1);
  4765  00331C  0E29               	movlw	41
  4766  00331E  6E0B               	movwf	glcd_PlotPixel@ypos^0,c
  4767  003320  0E01               	movlw	1
  4768  003322  6E0C               	movwf	glcd_PlotPixel@color^0,c
  4769  003324  0E24               	movlw	36
  4770  003326  EC71  F00E         	call	_glcd_PlotPixel
  4771  00332A                     
  4772                           ;newmain.c: 288:     glcd_PlotPixel(46,59,1);
  4773  00332A  0E2A               	movlw	42
  4774  00332C  6E0B               	movwf	glcd_PlotPixel@ypos^0,c
  4775  00332E  0E01               	movlw	1
  4776  003330  6E0C               	movwf	glcd_PlotPixel@color^0,c
  4777  003332  0E21               	movlw	33
  4778  003334  EC71  F00E         	call	_glcd_PlotPixel
  4779  003338                     
  4780                           ;newmain.c: 291:     glcd_PlotPixel(40,44,1);
  4781  003338  0E26               	movlw	38
  4782  00333A  6E0B               	movwf	glcd_PlotPixel@ypos^0,c
  4783  00333C  0E01               	movlw	1
  4784  00333E  6E0C               	movwf	glcd_PlotPixel@color^0,c
  4785  003340  0E1E               	movlw	30
  4786  003342  EC71  F00E         	call	_glcd_PlotPixel
  4787  003346                     
  4788                           ;newmain.c: 292:     glcd_PlotPixel(40,45,1);
  4789  003346  0E26               	movlw	38
  4790  003348  6E0B               	movwf	glcd_PlotPixel@ypos^0,c
  4791  00334A  0E01               	movlw	1
  4792  00334C  6E0C               	movwf	glcd_PlotPixel@color^0,c
  4793  00334E  0E1F               	movlw	31
  4794  003350  EC71  F00E         	call	_glcd_PlotPixel
  4795  003354                     
  4796                           ;newmain.c: 293:     glcd_PlotPixel(40,46,1);
  4797  003354  0E26               	movlw	38
  4798  003356  6E0B               	movwf	glcd_PlotPixel@ypos^0,c
  4799  003358  0E01               	movlw	1
  4800  00335A  6E0C               	movwf	glcd_PlotPixel@color^0,c
  4801  00335C  0E20               	movlw	32
  4802  00335E  EC71  F00E         	call	_glcd_PlotPixel
  4803  003362                     
  4804                           ;newmain.c: 294:     glcd_PlotPixel(40,47,1);
  4805  003362  0E26               	movlw	38
  4806  003364  6E0B               	movwf	glcd_PlotPixel@ypos^0,c
  4807  003366  0E01               	movlw	1
  4808  003368  6E0C               	movwf	glcd_PlotPixel@color^0,c
  4809  00336A  0E21               	movlw	33
  4810  00336C  EC71  F00E         	call	_glcd_PlotPixel
  4811  003370                     
  4812                           ;newmain.c: 295:     glcd_PlotPixel(40,48,1);
  4813  003370  0E26               	movlw	38
  4814  003372  6E0B               	movwf	glcd_PlotPixel@ypos^0,c
  4815  003374  0E01               	movlw	1
  4816  003376  6E0C               	movwf	glcd_PlotPixel@color^0,c
  4817  003378  0E22               	movlw	34
  4818  00337A  EC71  F00E         	call	_glcd_PlotPixel
  4819  00337E                     
  4820                           ;newmain.c: 296:     glcd_PlotPixel(41,45,1);
  4821  00337E  0E26               	movlw	38
  4822  003380  6E0B               	movwf	glcd_PlotPixel@ypos^0,c
  4823  003382  0E01               	movlw	1
  4824  003384  6E0C               	movwf	glcd_PlotPixel@color^0,c
  4825  003386  0E23               	movlw	35
  4826  003388  EC71  F00E         	call	_glcd_PlotPixel
  4827  00338C                     
  4828                           ;newmain.c: 297:     glcd_PlotPixel(42,45,1);
  4829  00338C  0E25               	movlw	37
  4830  00338E  6E0B               	movwf	glcd_PlotPixel@ypos^0,c
  4831  003390  0E01               	movlw	1
  4832  003392  6E0C               	movwf	glcd_PlotPixel@color^0,c
  4833  003394  0E24               	movlw	36
  4834  003396  EC71  F00E         	call	_glcd_PlotPixel
  4835  00339A                     
  4836                           ;newmain.c: 301:     glcd_PlotPixel(46,46,1);
  4837  00339A  0E3C               	movlw	60
  4838  00339C  6E0B               	movwf	glcd_PlotPixel@ypos^0,c
  4839  00339E  0E01               	movlw	1
  4840  0033A0  6E0C               	movwf	glcd_PlotPixel@color^0,c
  4841  0033A2  0E29               	movlw	41
  4842  0033A4  EC71  F00E         	call	_glcd_PlotPixel
  4843  0033A8                     
  4844                           ;newmain.c: 302:     glcd_PlotPixel(46,47,1);
  4845  0033A8  0E3B               	movlw	59
  4846  0033AA  6E0B               	movwf	glcd_PlotPixel@ypos^0,c
  4847  0033AC  0E01               	movlw	1
  4848  0033AE  6E0C               	movwf	glcd_PlotPixel@color^0,c
  4849  0033B0  0E28               	movlw	40
  4850  0033B2  EC71  F00E         	call	_glcd_PlotPixel
  4851  0033B6                     
  4852                           ;newmain.c: 303:     glcd_PlotPixel(46,48,1);
  4853  0033B6  0E3B               	movlw	59
  4854  0033B8  6E0B               	movwf	glcd_PlotPixel@ypos^0,c
  4855  0033BA  0E01               	movlw	1
  4856  0033BC  6E0C               	movwf	glcd_PlotPixel@color^0,c
  4857  0033BE  0E29               	movlw	41
  4858  0033C0  EC71  F00E         	call	_glcd_PlotPixel
  4859  0033C4                     
  4860                           ;newmain.c: 304: 
  4861  0033C4  0E3B               	movlw	59
  4862  0033C6  6E0B               	movwf	glcd_PlotPixel@ypos^0,c
  4863  0033C8  0E01               	movlw	1
  4864  0033CA  6E0C               	movwf	glcd_PlotPixel@color^0,c
  4865  0033CC  0E2A               	movlw	42
  4866  0033CE  EC71  F00E         	call	_glcd_PlotPixel
  4867  0033D2                     
  4868                           ;newmain.c: 305: 
  4869  0033D2  0E3B               	movlw	59
  4870  0033D4  6E0B               	movwf	glcd_PlotPixel@ypos^0,c
  4871  0033D6  0E01               	movlw	1
  4872  0033D8  6E0C               	movwf	glcd_PlotPixel@color^0,c
  4873  0033DA  0E2B               	movlw	43
  4874  0033DC  EC71  F00E         	call	_glcd_PlotPixel
  4875  0033E0                     
  4876                           ;newmain.c: 306:     glcd_PlotPixel(40,43,1);
  4877  0033E0  0E3B               	movlw	59
  4878  0033E2  6E0B               	movwf	glcd_PlotPixel@ypos^0,c
  4879  0033E4  0E01               	movlw	1
  4880  0033E6  6E0C               	movwf	glcd_PlotPixel@color^0,c
  4881  0033E8  0E2C               	movlw	44
  4882  0033EA  EC71  F00E         	call	_glcd_PlotPixel
  4883  0033EE                     
  4884                           ;newmain.c: 307:     glcd_PlotPixel(40,42,1);
  4885  0033EE  0E3B               	movlw	59
  4886  0033F0  6E0B               	movwf	glcd_PlotPixel@ypos^0,c
  4887  0033F2  0E01               	movlw	1
  4888  0033F4  6E0C               	movwf	glcd_PlotPixel@color^0,c
  4889  0033F6  0E2D               	movlw	45
  4890  0033F8  EC71  F00E         	call	_glcd_PlotPixel
  4891  0033FC                     
  4892                           ;newmain.c: 308:     glcd_PlotPixel(40,41,1);
  4893  0033FC  0E3B               	movlw	59
  4894  0033FE  6E0B               	movwf	glcd_PlotPixel@ypos^0,c
  4895  003400  0E01               	movlw	1
  4896  003402  6E0C               	movwf	glcd_PlotPixel@color^0,c
  4897  003404  0E2E               	movlw	46
  4898  003406  EC71  F00E         	call	_glcd_PlotPixel
  4899  00340A                     
  4900                           ;newmain.c: 311:     glcd_PlotPixel(43,43,1);
  4901  00340A  0E2C               	movlw	44
  4902  00340C  6E0B               	movwf	glcd_PlotPixel@ypos^0,c
  4903  00340E  0E01               	movlw	1
  4904  003410  6E0C               	movwf	glcd_PlotPixel@color^0,c
  4905  003412  0E28               	movlw	40
  4906  003414  EC71  F00E         	call	_glcd_PlotPixel
  4907  003418                     
  4908                           ;newmain.c: 312:     glcd_PlotPixel(44,43,1);
  4909  003418  0E2D               	movlw	45
  4910  00341A  6E0B               	movwf	glcd_PlotPixel@ypos^0,c
  4911  00341C  0E01               	movlw	1
  4912  00341E  6E0C               	movwf	glcd_PlotPixel@color^0,c
  4913  003420  0E28               	movlw	40
  4914  003422  EC71  F00E         	call	_glcd_PlotPixel
  4915  003426                     
  4916                           ;newmain.c: 313:     glcd_PlotPixel(45,43,1);
  4917  003426  0E2E               	movlw	46
  4918  003428  6E0B               	movwf	glcd_PlotPixel@ypos^0,c
  4919  00342A  0E01               	movlw	1
  4920  00342C  6E0C               	movwf	glcd_PlotPixel@color^0,c
  4921  00342E  0E28               	movlw	40
  4922  003430  EC71  F00E         	call	_glcd_PlotPixel
  4923  003434                     
  4924                           ;newmain.c: 314:     glcd_PlotPixel(46,43,1);
  4925  003434  0E2F               	movlw	47
  4926  003436  6E0B               	movwf	glcd_PlotPixel@ypos^0,c
  4927  003438  0E01               	movlw	1
  4928  00343A  6E0C               	movwf	glcd_PlotPixel@color^0,c
  4929  00343C  0E28               	movlw	40
  4930  00343E  EC71  F00E         	call	_glcd_PlotPixel
  4931  003442                     
  4932                           ;newmain.c: 315:     glcd_PlotPixel(46,42,1);
  4933  003442  0E30               	movlw	48
  4934  003444  6E0B               	movwf	glcd_PlotPixel@ypos^0,c
  4935  003446  0E01               	movlw	1
  4936  003448  6E0C               	movwf	glcd_PlotPixel@color^0,c
  4937  00344A  0E28               	movlw	40
  4938  00344C  EC71  F00E         	call	_glcd_PlotPixel
  4939  003450                     
  4940                           ;newmain.c: 316:     glcd_PlotPixel(46,41,1);
  4941  003450  0E2D               	movlw	45
  4942  003452  6E0B               	movwf	glcd_PlotPixel@ypos^0,c
  4943  003454  0E01               	movlw	1
  4944  003456  6E0C               	movwf	glcd_PlotPixel@color^0,c
  4945  003458  0E29               	movlw	41
  4946  00345A  EC71  F00E         	call	_glcd_PlotPixel
  4947  00345E                     
  4948                           ;newmain.c: 317:     glcd_PlotPixel(43,42,1);
  4949  00345E  0E2D               	movlw	45
  4950  003460  6E0B               	movwf	glcd_PlotPixel@ypos^0,c
  4951  003462  0E01               	movlw	1
  4952  003464  6E0C               	movwf	glcd_PlotPixel@color^0,c
  4953  003466  0E2A               	movlw	42
  4954  003468  EC71  F00E         	call	_glcd_PlotPixel
  4955  00346C                     
  4956                           ;newmain.c: 318: 
  4957  00346C  0E2D               	movlw	45
  4958  00346E  6E0B               	movwf	glcd_PlotPixel@ypos^0,c
  4959  003470  0E01               	movlw	1
  4960  003472  6E0C               	movwf	glcd_PlotPixel@color^0,c
  4961  003474  0E2B               	movlw	43
  4962  003476  EC71  F00E         	call	_glcd_PlotPixel
  4963  00347A                     
  4964                           ;newmain.c: 319: 
  4965  00347A  0E2D               	movlw	45
  4966  00347C  6E0B               	movwf	glcd_PlotPixel@ypos^0,c
  4967  00347E  0E01               	movlw	1
  4968  003480  6E0C               	movwf	glcd_PlotPixel@color^0,c
  4969  003482  0E2C               	movlw	44
  4970  003484  EC71  F00E         	call	_glcd_PlotPixel
  4971  003488                     
  4972                           ;newmain.c: 320:     glcd_PlotPixel(40,38,1);
  4973  003488  0E2D               	movlw	45
  4974  00348A  6E0B               	movwf	glcd_PlotPixel@ypos^0,c
  4975  00348C  0E01               	movlw	1
  4976  00348E  6E0C               	movwf	glcd_PlotPixel@color^0,c
  4977  003490  0E2D               	movlw	45
  4978  003492  EC71  F00E         	call	_glcd_PlotPixel
  4979  003496                     
  4980                           ;newmain.c: 321:     glcd_PlotPixel(41,38,1);
  4981  003496  0E2E               	movlw	46
  4982  003498  6E0B               	movwf	glcd_PlotPixel@ypos^0,c
  4983  00349A  0E01               	movlw	1
  4984  00349C  6E0C               	movwf	glcd_PlotPixel@color^0,c
  4985  00349E  0E2E               	movlw	46
  4986  0034A0  EC71  F00E         	call	_glcd_PlotPixel
  4987  0034A4                     
  4988                           ;newmain.c: 322:     glcd_PlotPixel(42,38,1);
  4989  0034A4  0E2F               	movlw	47
  4990  0034A6  6E0B               	movwf	glcd_PlotPixel@ypos^0,c
  4991  0034A8  0E01               	movlw	1
  4992  0034AA  6E0C               	movwf	glcd_PlotPixel@color^0,c
  4993  0034AC  0E2E               	movlw	46
  4994  0034AE  EC71  F00E         	call	_glcd_PlotPixel
  4995  0034B2                     
  4996                           ;newmain.c: 323:     glcd_PlotPixel(43,38,1);
  4997  0034B2  0E30               	movlw	48
  4998  0034B4  6E0B               	movwf	glcd_PlotPixel@ypos^0,c
  4999  0034B6  0E01               	movlw	1
  5000  0034B8  6E0C               	movwf	glcd_PlotPixel@color^0,c
  5001  0034BA  0E2E               	movlw	46
  5002  0034BC  EC71  F00E         	call	_glcd_PlotPixel
  5003  0034C0                     
  5004                           ;newmain.c: 326:     glcd_PlotPixel(46,38,1);
  5005  0034C0  0E2B               	movlw	43
  5006  0034C2  6E0B               	movwf	glcd_PlotPixel@ypos^0,c
  5007  0034C4  0E01               	movlw	1
  5008  0034C6  6E0C               	movwf	glcd_PlotPixel@color^0,c
  5009  0034C8  0E28               	movlw	40
  5010  0034CA  EC71  F00E         	call	_glcd_PlotPixel
  5011  0034CE                     
  5012                           ;newmain.c: 327:     glcd_PlotPixel(40,35,1);
  5013  0034CE  0E2A               	movlw	42
  5014  0034D0  6E0B               	movwf	glcd_PlotPixel@ypos^0,c
  5015  0034D2  0E01               	movlw	1
  5016  0034D4  6E0C               	movwf	glcd_PlotPixel@color^0,c
  5017  0034D6  0E28               	movlw	40
  5018  0034D8  EC71  F00E         	call	_glcd_PlotPixel
  5019  0034DC                     
  5020                           ;newmain.c: 328:     glcd_PlotPixel(41,35,1);
  5021  0034DC  0E29               	movlw	41
  5022  0034DE  6E0B               	movwf	glcd_PlotPixel@ypos^0,c
  5023  0034E0  0E01               	movlw	1
  5024  0034E2  6E0C               	movwf	glcd_PlotPixel@color^0,c
  5025  0034E4  0E28               	movlw	40
  5026  0034E6  EC71  F00E         	call	_glcd_PlotPixel
  5027  0034EA                     
  5028                           ;newmain.c: 329:     glcd_PlotPixel(42,35,1);
  5029  0034EA  0E2B               	movlw	43
  5030  0034EC  6E0B               	movwf	glcd_PlotPixel@ypos^0,c
  5031  0034EE  0E01               	movlw	1
  5032  0034F0  6E0C               	movwf	glcd_PlotPixel@color^0,c
  5033  0034F2  0E29               	movlw	41
  5034  0034F4  EC71  F00E         	call	_glcd_PlotPixel
  5035  0034F8                     
  5036                           ;newmain.c: 330:     glcd_PlotPixel(43,35,1);
  5037  0034F8  0E2B               	movlw	43
  5038  0034FA  6E0B               	movwf	glcd_PlotPixel@ypos^0,c
  5039  0034FC  0E01               	movlw	1
  5040  0034FE  6E0C               	movwf	glcd_PlotPixel@color^0,c
  5041  003500  0E2A               	movlw	42
  5042  003502  EC71  F00E         	call	_glcd_PlotPixel
  5043  003506                     
  5044                           ;newmain.c: 331:     glcd_PlotPixel(44,35,1);
  5045  003506  0E2B               	movlw	43
  5046  003508  6E0B               	movwf	glcd_PlotPixel@ypos^0,c
  5047  00350A  0E01               	movlw	1
  5048  00350C  6E0C               	movwf	glcd_PlotPixel@color^0,c
  5049  00350E  0E2B               	movlw	43
  5050  003510  EC71  F00E         	call	_glcd_PlotPixel
  5051  003514                     
  5052                           ;newmain.c: 332:     glcd_PlotPixel(45,35,1);
  5053  003514  0E2B               	movlw	43
  5054  003516  6E0B               	movwf	glcd_PlotPixel@ypos^0,c
  5055  003518  0E01               	movlw	1
  5056  00351A  6E0C               	movwf	glcd_PlotPixel@color^0,c
  5057  00351C  0E2C               	movlw	44
  5058  00351E  EC71  F00E         	call	_glcd_PlotPixel
  5059  003522                     
  5060                           ;newmain.c: 333:     glcd_PlotPixel(46,35,1);
  5061  003522  0E2B               	movlw	43
  5062  003524  6E0B               	movwf	glcd_PlotPixel@ypos^0,c
  5063  003526  0E01               	movlw	1
  5064  003528  6E0C               	movwf	glcd_PlotPixel@color^0,c
  5065  00352A  0E2D               	movlw	45
  5066  00352C  EC71  F00E         	call	_glcd_PlotPixel
  5067  003530                     
  5068                           ;newmain.c: 334:     glcd_PlotPixel(46,36,1);
  5069  003530  0E2B               	movlw	43
  5070  003532  6E0B               	movwf	glcd_PlotPixel@ypos^0,c
  5071  003534  0E01               	movlw	1
  5072  003536  6E0C               	movwf	glcd_PlotPixel@color^0,c
  5073  003538  0E2E               	movlw	46
  5074  00353A  EC71  F00E         	call	_glcd_PlotPixel
  5075  00353E                     
  5076                           ;newmain.c: 335:     glcd_PlotPixel(46,37,1);
  5077  00353E  0E2A               	movlw	42
  5078  003540  6E0B               	movwf	glcd_PlotPixel@ypos^0,c
  5079  003542  0E01               	movlw	1
  5080  003544  6E0C               	movwf	glcd_PlotPixel@color^0,c
  5081  003546  0E2E               	movlw	46
  5082  003548  EC71  F00E         	call	_glcd_PlotPixel
  5083  00354C                     
  5084                           ;newmain.c: 336: }
  5085  00354C  0E29               	movlw	41
  5086  00354E  6E0B               	movwf	glcd_PlotPixel@ypos^0,c
  5087  003550  0E01               	movlw	1
  5088  003552  6E0C               	movwf	glcd_PlotPixel@color^0,c
  5089  003554  0E2E               	movlw	46
  5090  003556  EC71  F00E         	call	_glcd_PlotPixel
  5091  00355A                     
  5092                           ;newmain.c: 337: 
  5093  00355A  0E2A               	movlw	42
  5094  00355C  6E0B               	movwf	glcd_PlotPixel@ypos^0,c
  5095  00355E  0E01               	movlw	1
  5096  003560  6E0C               	movwf	glcd_PlotPixel@color^0,c
  5097  003562  0E2B               	movlw	43
  5098  003564  EC71  F00E         	call	_glcd_PlotPixel
  5099  003568                     
  5100                           ;newmain.c: 340:      glcd_FillScreen(0);
  5101  003568  0E26               	movlw	38
  5102  00356A  6E0B               	movwf	glcd_PlotPixel@ypos^0,c
  5103  00356C  0E01               	movlw	1
  5104  00356E  6E0C               	movwf	glcd_PlotPixel@color^0,c
  5105  003570  0E28               	movlw	40
  5106  003572  EC71  F00E         	call	_glcd_PlotPixel
  5107  003576  0E26               	movlw	38
  5108  003578  6E0B               	movwf	glcd_PlotPixel@ypos^0,c
  5109  00357A  0E01               	movlw	1
  5110  00357C  6E0C               	movwf	glcd_PlotPixel@color^0,c
  5111  00357E  0E29               	movlw	41
  5112  003580  EC71  F00E         	call	_glcd_PlotPixel
  5113  003584  0E26               	movlw	38
  5114  003586  6E0B               	movwf	glcd_PlotPixel@ypos^0,c
  5115  003588  0E01               	movlw	1
  5116  00358A  6E0C               	movwf	glcd_PlotPixel@color^0,c
  5117  00358C  0E2A               	movlw	42
  5118  00358E  EC71  F00E         	call	_glcd_PlotPixel
  5119  003592  0E26               	movlw	38
  5120  003594  6E0B               	movwf	glcd_PlotPixel@ypos^0,c
  5121  003596  0E01               	movlw	1
  5122  003598  6E0C               	movwf	glcd_PlotPixel@color^0,c
  5123  00359A  0E2B               	movlw	43
  5124  00359C  EC71  F00E         	call	_glcd_PlotPixel
  5125  0035A0  0E26               	movlw	38
  5126  0035A2  6E0B               	movwf	glcd_PlotPixel@ypos^0,c
  5127  0035A4  0E01               	movlw	1
  5128  0035A6  6E0C               	movwf	glcd_PlotPixel@color^0,c
  5129  0035A8  0E2C               	movlw	44
  5130  0035AA  EC71  F00E         	call	_glcd_PlotPixel
  5131  0035AE  0E26               	movlw	38
  5132  0035B0  6E0B               	movwf	glcd_PlotPixel@ypos^0,c
  5133  0035B2  0E01               	movlw	1
  5134  0035B4  6E0C               	movwf	glcd_PlotPixel@color^0,c
  5135  0035B6  0E2D               	movlw	45
  5136  0035B8  EC71  F00E         	call	_glcd_PlotPixel
  5137  0035BC  0E26               	movlw	38
  5138  0035BE  6E0B               	movwf	glcd_PlotPixel@ypos^0,c
  5139  0035C0  0E01               	movlw	1
  5140  0035C2  6E0C               	movwf	glcd_PlotPixel@color^0,c
  5141  0035C4  0E2E               	movlw	46
  5142  0035C6  EC71  F00E         	call	_glcd_PlotPixel
  5143  0035CA  0E23               	movlw	35
  5144  0035CC  6E0B               	movwf	glcd_PlotPixel@ypos^0,c
  5145  0035CE  0E01               	movlw	1
  5146  0035D0  6E0C               	movwf	glcd_PlotPixel@color^0,c
  5147  0035D2  0E28               	movlw	40
  5148  0035D4  EC71  F00E         	call	_glcd_PlotPixel
  5149  0035D8  0E23               	movlw	35
  5150  0035DA  6E0B               	movwf	glcd_PlotPixel@ypos^0,c
  5151  0035DC  0E01               	movlw	1
  5152  0035DE  6E0C               	movwf	glcd_PlotPixel@color^0,c
  5153  0035E0  0E29               	movlw	41
  5154  0035E2  EC71  F00E         	call	_glcd_PlotPixel
  5155  0035E6  0E23               	movlw	35
  5156  0035E8  6E0B               	movwf	glcd_PlotPixel@ypos^0,c
  5157  0035EA  0E01               	movlw	1
  5158  0035EC  6E0C               	movwf	glcd_PlotPixel@color^0,c
  5159  0035EE  0E2A               	movlw	42
  5160  0035F0  EC71  F00E         	call	_glcd_PlotPixel
  5161  0035F4  0E23               	movlw	35
  5162  0035F6  6E0B               	movwf	glcd_PlotPixel@ypos^0,c
  5163  0035F8  0E01               	movlw	1
  5164  0035FA  6E0C               	movwf	glcd_PlotPixel@color^0,c
  5165  0035FC  0E2B               	movlw	43
  5166  0035FE  EC71  F00E         	call	_glcd_PlotPixel
  5167  003602  0E23               	movlw	35
  5168  003604  6E0B               	movwf	glcd_PlotPixel@ypos^0,c
  5169  003606  0E01               	movlw	1
  5170  003608  6E0C               	movwf	glcd_PlotPixel@color^0,c
  5171  00360A  0E2C               	movlw	44
  5172  00360C  EC71  F00E         	call	_glcd_PlotPixel
  5173  003610  0E23               	movlw	35
  5174  003612  6E0B               	movwf	glcd_PlotPixel@ypos^0,c
  5175  003614  0E01               	movlw	1
  5176  003616  6E0C               	movwf	glcd_PlotPixel@color^0,c
  5177  003618  0E2D               	movlw	45
  5178  00361A  EC71  F00E         	call	_glcd_PlotPixel
  5179  00361E  0E23               	movlw	35
  5180  003620  6E0B               	movwf	glcd_PlotPixel@ypos^0,c
  5181  003622  0E01               	movlw	1
  5182  003624  6E0C               	movwf	glcd_PlotPixel@color^0,c
  5183  003626  0E2E               	movlw	46
  5184  003628  EC71  F00E         	call	_glcd_PlotPixel
  5185  00362C  0E24               	movlw	36
  5186  00362E  6E0B               	movwf	glcd_PlotPixel@ypos^0,c
  5187  003630  0E01               	movlw	1
  5188  003632  6E0C               	movwf	glcd_PlotPixel@color^0,c
  5189  003634  0E2E               	movlw	46
  5190  003636  EC71  F00E         	call	_glcd_PlotPixel
  5191  00363A  0E25               	movlw	37
  5192  00363C  6E0B               	movwf	glcd_PlotPixel@ypos^0,c
  5193  00363E  0E01               	movlw	1
  5194  003640  6E0C               	movwf	glcd_PlotPixel@color^0,c
  5195  003642  0E2E               	movlw	46
  5196  003644  EC71  F00E         	call	_glcd_PlotPixel
  5197  003648  0012               	return		;funcret
  5198  00364A                     __end_of_affMenu:
  5199                           	opt callstack 0
  5200                           
  5201 ;; *************** function _makeForme *****************
  5202 ;; Defined at:
  5203 ;;		line 3 in file "../V3.X/formes.c"
  5204 ;; Parameters:    Size  Location     Type
  5205 ;;  forme           2    0[COMRAM] PTR unsigned char [2]
  5206 ;;		 -> main@forme(8), 
  5207 ;;  i               2    2[COMRAM] unsigned short 
  5208 ;; Auto vars:     Size  Location     Type
  5209 ;;  j               2   38[COMRAM] unsigned short 
  5210 ;;  j               2   34[COMRAM] unsigned short 
  5211 ;;  j               2   30[COMRAM] unsigned short 
  5212 ;;  j               2   26[COMRAM] unsigned short 
  5213 ;;  j               2   22[COMRAM] unsigned short 
  5214 ;;  j               2   16[COMRAM] unsigned short 
  5215 ;;  j               2   10[COMRAM] unsigned short 
  5216 ;;  i               2   18[COMRAM] unsigned short 
  5217 ;;  i               2   36[COMRAM] unsigned short 
  5218 ;;  i               2   32[COMRAM] unsigned short 
  5219 ;;  i               2   28[COMRAM] unsigned short 
  5220 ;;  i               2   24[COMRAM] unsigned short 
  5221 ;;  i               2   20[COMRAM] unsigned short 
  5222 ;;  i               2   14[COMRAM] unsigned short 
  5223 ;;  i               2   12[COMRAM] unsigned short 
  5224 ;;  i               2    8[COMRAM] unsigned short 
  5225 ;; Return value:  Size  Location     Type
  5226 ;;                  1    wreg      void 
  5227 ;; Registers used:
  5228 ;;		wreg, fsr2l, fsr2h, status,2, status,0
  5229 ;; Tracked objects:
  5230 ;;		On entry : 0/0
  5231 ;;		On exit  : 0/0
  5232 ;;		Unchanged: 0/0
  5233 ;; Data sizes:     COMRAM   BANK0   BANK1   BANK4
  5234 ;;      Params:         4       0       0       0
  5235 ;;      Locals:        32       0       0       0
  5236 ;;      Temps:          4       0       0       0
  5237 ;;      Totals:        40       0       0       0
  5238 ;;Total ram usage:       40 bytes
  5239 ;; Hardware stack levels used:    1
  5240 ;; This function calls:
  5241 ;;		Nothing
  5242 ;; This function is called by:
  5243 ;;		_main
  5244 ;; This function uses a non-reentrant model
  5245 ;;
  5246                           
  5247                           	psect	text10
  5248  002774                     __ptext10:
  5249                           	opt callstack 0
  5250  002774                     _makeForme:
  5251                           	opt callstack 30
  5252  002774                     
  5253                           ;../V3.X/formes.c: 4:  for(unsigned short i = 0; i < 4; i++){
  5254  002774  0E00               	movlw	0
  5255  002776  6E0A               	movwf	(makeForme@i_324+1)^0,c
  5256  002778  0E00               	movlw	0
  5257  00277A  6E09               	movwf	makeForme@i_324^0,c
  5258  00277C                     l3355:
  5259                           
  5260                           ;../V3.X/formes.c: 5:   for(unsigned short j = 0; j < 2; j++)
  5261  00277C  0E00               	movlw	0
  5262  00277E  6E0C               	movwf	(makeForme@j+1)^0,c
  5263  002780  0E00               	movlw	0
  5264  002782  6E0B               	movwf	makeForme@j^0,c
  5265  002784                     l3361:
  5266                           
  5267                           ;../V3.X/formes.c: 6:    forme[i][j] = 0;
  5268  002784  C009  F005         	movff	makeForme@i_324,??_makeForme
  5269  002788  C00A  F006         	movff	makeForme@i_324+1,??_makeForme+1
  5270  00278C  90D8               	bcf	status,0,c
  5271  00278E  3605               	rlcf	??_makeForme^0,f,c
  5272  002790  3606               	rlcf	(??_makeForme+1)^0,f,c
  5273  002792  C001  F007         	movff	makeForme@forme,??_makeForme+2
  5274  002796  C002  F008         	movff	makeForme@forme+1,??_makeForme+3
  5275  00279A  5005               	movf	??_makeForme^0,w,c
  5276  00279C  2607               	addwf	(??_makeForme+2)^0,f,c
  5277  00279E  5006               	movf	(??_makeForme+1)^0,w,c
  5278  0027A0  2208               	addwfc	(??_makeForme+3)^0,f,c
  5279  0027A2  500B               	movf	makeForme@j^0,w,c
  5280  0027A4  2407               	addwf	(??_makeForme+2)^0,w,c
  5281  0027A6  6ED9               	movwf	fsr2l,c
  5282  0027A8  500C               	movf	(makeForme@j+1)^0,w,c
  5283  0027AA  2008               	addwfc	(??_makeForme+3)^0,w,c
  5284  0027AC  6EDA               	movwf	fsr2h,c
  5285  0027AE  0E00               	movlw	0
  5286  0027B0  6EDF               	movwf	indf2,c
  5287  0027B2  4A0B               	infsnz	makeForme@j^0,f,c
  5288  0027B4  2A0C               	incf	(makeForme@j+1)^0,f,c
  5289  0027B6  500C               	movf	(makeForme@j+1)^0,w,c
  5290  0027B8  E109               	bnz	u2100
  5291  0027BA  0E02               	movlw	2
  5292  0027BC  5C0B               	subwf	makeForme@j^0,w,c
  5293  0027BE  A0D8               	btfss	status,0,c
  5294  0027C0  EFE4  F013         	goto	u2101
  5295  0027C4  EFE6  F013         	goto	u2100
  5296  0027C8                     u2101:
  5297  0027C8  EFC2  F013         	goto	l3361
  5298  0027CC                     u2100:
  5299  0027CC                     
  5300                           ;../V3.X/formes.c: 7:  }
  5301  0027CC  4A09               	infsnz	makeForme@i_324^0,f,c
  5302  0027CE  2A0A               	incf	(makeForme@i_324+1)^0,f,c
  5303  0027D0  500A               	movf	(makeForme@i_324+1)^0,w,c
  5304  0027D2  E109               	bnz	u2110
  5305  0027D4  0E04               	movlw	4
  5306  0027D6  5C09               	subwf	makeForme@i_324^0,w,c
  5307  0027D8  A0D8               	btfss	status,0,c
  5308  0027DA  EFF1  F013         	goto	u2111
  5309  0027DE  EFF3  F013         	goto	u2110
  5310  0027E2                     u2111:
  5311  0027E2  EFBE  F013         	goto	l3355
  5312  0027E6                     u2110:
  5313  0027E6  EF5E  F016         	goto	l3569
  5314  0027EA                     l3371:
  5315                           
  5316                           ;../V3.X/formes.c: 10:    for(unsigned short i = 0; i < 4; i++)
  5317  0027EA  0E00               	movlw	0
  5318  0027EC  6E0E               	movwf	(makeForme@i_326+1)^0,c
  5319  0027EE  0E00               	movlw	0
  5320  0027F0  6E0D               	movwf	makeForme@i_326^0,c
  5321  0027F2                     l3377:
  5322                           
  5323                           ;../V3.X/formes.c: 11:     forme[i][0] = 1;
  5324  0027F2  90D8               	bcf	status,0,c
  5325  0027F4  340D               	rlcf	makeForme@i_326^0,w,c
  5326  0027F6  6ED9               	movwf	fsr2l,c
  5327  0027F8  340E               	rlcf	(makeForme@i_326+1)^0,w,c
  5328  0027FA  6EDA               	movwf	fsr2h,c
  5329  0027FC  5001               	movf	makeForme@forme^0,w,c
  5330  0027FE  26D9               	addwf	fsr2l,f,c
  5331  002800  5002               	movf	(makeForme@forme+1)^0,w,c
  5332  002802  22DA               	addwfc	fsr2h,f,c
  5333  002804  0E01               	movlw	1
  5334  002806  6EDF               	movwf	indf2,c
  5335  002808  4A0D               	infsnz	makeForme@i_326^0,f,c
  5336  00280A  2A0E               	incf	(makeForme@i_326+1)^0,f,c
  5337  00280C  500E               	movf	(makeForme@i_326+1)^0,w,c
  5338  00280E  E109               	bnz	u2120
  5339  002810  0E04               	movlw	4
  5340  002812  5C0D               	subwf	makeForme@i_326^0,w,c
  5341  002814  A0D8               	btfss	status,0,c
  5342  002816  EF0F  F014         	goto	u2121
  5343  00281A  EF11  F014         	goto	u2120
  5344  00281E                     u2121:
  5345  00281E  EFF9  F013         	goto	l3377
  5346  002822                     u2120:
  5347  002822  EF88  F016         	goto	l224
  5348  002826                     l3383:
  5349                           
  5350                           ;../V3.X/formes.c: 15:    for(unsigned short i = 0; i < 2; i++){
  5351  002826  0E00               	movlw	0
  5352  002828  6E10               	movwf	(makeForme@i_327+1)^0,c
  5353  00282A  0E00               	movlw	0
  5354  00282C  6E0F               	movwf	makeForme@i_327^0,c
  5355  00282E                     l3389:
  5356                           
  5357                           ;../V3.X/formes.c: 16:     for(unsigned short j = 0; j < 2; j++)
  5358  00282E  0E00               	movlw	0
  5359  002830  6E12               	movwf	(makeForme@j_328+1)^0,c
  5360  002832  0E00               	movlw	0
  5361  002834  6E11               	movwf	makeForme@j_328^0,c
  5362  002836                     l3395:
  5363                           
  5364                           ;../V3.X/formes.c: 17:      forme[i][j] = 1;
  5365  002836  C00F  F005         	movff	makeForme@i_327,??_makeForme
  5366  00283A  C010  F006         	movff	makeForme@i_327+1,??_makeForme+1
  5367  00283E  90D8               	bcf	status,0,c
  5368  002840  3605               	rlcf	??_makeForme^0,f,c
  5369  002842  3606               	rlcf	(??_makeForme+1)^0,f,c
  5370  002844  C001  F007         	movff	makeForme@forme,??_makeForme+2
  5371  002848  C002  F008         	movff	makeForme@forme+1,??_makeForme+3
  5372  00284C  5005               	movf	??_makeForme^0,w,c
  5373  00284E  2607               	addwf	(??_makeForme+2)^0,f,c
  5374  002850  5006               	movf	(??_makeForme+1)^0,w,c
  5375  002852  2208               	addwfc	(??_makeForme+3)^0,f,c
  5376  002854  5011               	movf	makeForme@j_328^0,w,c
  5377  002856  2407               	addwf	(??_makeForme+2)^0,w,c
  5378  002858  6ED9               	movwf	fsr2l,c
  5379  00285A  5012               	movf	(makeForme@j_328+1)^0,w,c
  5380  00285C  2008               	addwfc	(??_makeForme+3)^0,w,c
  5381  00285E  6EDA               	movwf	fsr2h,c
  5382  002860  0E01               	movlw	1
  5383  002862  6EDF               	movwf	indf2,c
  5384  002864  4A11               	infsnz	makeForme@j_328^0,f,c
  5385  002866  2A12               	incf	(makeForme@j_328+1)^0,f,c
  5386  002868  5012               	movf	(makeForme@j_328+1)^0,w,c
  5387  00286A  E109               	bnz	u2130
  5388  00286C  0E02               	movlw	2
  5389  00286E  5C11               	subwf	makeForme@j_328^0,w,c
  5390  002870  A0D8               	btfss	status,0,c
  5391  002872  EF3D  F014         	goto	u2131
  5392  002876  EF3F  F014         	goto	u2130
  5393  00287A                     u2131:
  5394  00287A  EF1B  F014         	goto	l3395
  5395  00287E                     u2130:
  5396  00287E                     
  5397                           ;../V3.X/formes.c: 18:    }
  5398  00287E  4A0F               	infsnz	makeForme@i_327^0,f,c
  5399  002880  2A10               	incf	(makeForme@i_327+1)^0,f,c
  5400  002882  5010               	movf	(makeForme@i_327+1)^0,w,c
  5401  002884  E109               	bnz	u2140
  5402  002886  0E02               	movlw	2
  5403  002888  5C0F               	subwf	makeForme@i_327^0,w,c
  5404  00288A  A0D8               	btfss	status,0,c
  5405  00288C  EF4A  F014         	goto	u2141
  5406  002890  EF4C  F014         	goto	u2140
  5407  002894                     u2141:
  5408  002894  EF17  F014         	goto	l3389
  5409  002898                     u2140:
  5410  002898  EF88  F016         	goto	l224
  5411  00289C                     l3405:
  5412                           
  5413                           ;../V3.X/formes.c: 22:    for(unsigned short i = 0; i < 3; i++){
  5414  00289C  0E00               	movlw	0
  5415  00289E  6E16               	movwf	(makeForme@i_329+1)^0,c
  5416  0028A0  0E00               	movlw	0
  5417  0028A2  6E15               	movwf	makeForme@i_329^0,c
  5418  0028A4                     l3411:
  5419                           
  5420                           ;../V3.X/formes.c: 23:      for(unsigned short j = 0; j < 2; j++){
  5421  0028A4  0E00               	movlw	0
  5422  0028A6  6E18               	movwf	(makeForme@j_330+1)^0,c
  5423  0028A8  0E00               	movlw	0
  5424  0028AA  6E17               	movwf	makeForme@j_330^0,c
  5425  0028AC                     l3417:
  5426                           
  5427                           ;../V3.X/formes.c: 24:       if(!((i == 0 && j == 1) || (i == 2 && j == 1)))
  5428  0028AC  5015               	movf	makeForme@i_329^0,w,c
  5429  0028AE  1016               	iorwf	(makeForme@i_329+1)^0,w,c
  5430  0028B0  A4D8               	btfss	status,2,c
  5431  0028B2  EF5D  F014         	goto	u2151
  5432  0028B6  EF5F  F014         	goto	u2150
  5433  0028BA                     u2151:
  5434  0028BA  EF68  F014         	goto	l3421
  5435  0028BE                     u2150:
  5436  0028BE  0417               	decf	makeForme@j_330^0,w,c
  5437  0028C0  1018               	iorwf	(makeForme@j_330+1)^0,w,c
  5438  0028C2  B4D8               	btfsc	status,2,c
  5439  0028C4  EF66  F014         	goto	u2161
  5440  0028C8  EF68  F014         	goto	u2160
  5441  0028CC                     u2161:
  5442  0028CC  EF92  F014         	goto	l3427
  5443  0028D0                     u2160:
  5444  0028D0                     l3421:
  5445  0028D0  0E02               	movlw	2
  5446  0028D2  1815               	xorwf	makeForme@i_329^0,w,c
  5447  0028D4  1016               	iorwf	(makeForme@i_329+1)^0,w,c
  5448  0028D6  A4D8               	btfss	status,2,c
  5449  0028D8  EF70  F014         	goto	u2171
  5450  0028DC  EF72  F014         	goto	u2170
  5451  0028E0                     u2171:
  5452  0028E0  EF7B  F014         	goto	l3425
  5453  0028E4                     u2170:
  5454  0028E4  0417               	decf	makeForme@j_330^0,w,c
  5455  0028E6  1018               	iorwf	(makeForme@j_330+1)^0,w,c
  5456  0028E8  B4D8               	btfsc	status,2,c
  5457  0028EA  EF79  F014         	goto	u2181
  5458  0028EE  EF7B  F014         	goto	u2180
  5459  0028F2                     u2181:
  5460  0028F2  EF92  F014         	goto	l3427
  5461  0028F6                     u2180:
  5462  0028F6                     l3425:
  5463                           
  5464                           ;../V3.X/formes.c: 25:        forme[i][j] = 1;
  5465  0028F6  C015  F005         	movff	makeForme@i_329,??_makeForme
  5466  0028FA  C016  F006         	movff	makeForme@i_329+1,??_makeForme+1
  5467  0028FE  90D8               	bcf	status,0,c
  5468  002900  3605               	rlcf	??_makeForme^0,f,c
  5469  002902  3606               	rlcf	(??_makeForme+1)^0,f,c
  5470  002904  C001  F007         	movff	makeForme@forme,??_makeForme+2
  5471  002908  C002  F008         	movff	makeForme@forme+1,??_makeForme+3
  5472  00290C  5005               	movf	??_makeForme^0,w,c
  5473  00290E  2607               	addwf	(??_makeForme+2)^0,f,c
  5474  002910  5006               	movf	(??_makeForme+1)^0,w,c
  5475  002912  2208               	addwfc	(??_makeForme+3)^0,f,c
  5476  002914  5017               	movf	makeForme@j_330^0,w,c
  5477  002916  2407               	addwf	(??_makeForme+2)^0,w,c
  5478  002918  6ED9               	movwf	fsr2l,c
  5479  00291A  5018               	movf	(makeForme@j_330+1)^0,w,c
  5480  00291C  2008               	addwfc	(??_makeForme+3)^0,w,c
  5481  00291E  6EDA               	movwf	fsr2h,c
  5482  002920  0E01               	movlw	1
  5483  002922  6EDF               	movwf	indf2,c
  5484  002924                     l3427:
  5485                           
  5486                           ;../V3.X/formes.c: 26:      }
  5487  002924  4A17               	infsnz	makeForme@j_330^0,f,c
  5488  002926  2A18               	incf	(makeForme@j_330+1)^0,f,c
  5489  002928  5018               	movf	(makeForme@j_330+1)^0,w,c
  5490  00292A  E109               	bnz	u2190
  5491  00292C  0E02               	movlw	2
  5492  00292E  5C17               	subwf	makeForme@j_330^0,w,c
  5493  002930  A0D8               	btfss	status,0,c
  5494  002932  EF9D  F014         	goto	u2191
  5495  002936  EF9F  F014         	goto	u2190
  5496  00293A                     u2191:
  5497  00293A  EF56  F014         	goto	l3417
  5498  00293E                     u2190:
  5499  00293E                     
  5500                           ;../V3.X/formes.c: 27:     }
  5501  00293E  4A15               	infsnz	makeForme@i_329^0,f,c
  5502  002940  2A16               	incf	(makeForme@i_329+1)^0,f,c
  5503  002942  5016               	movf	(makeForme@i_329+1)^0,w,c
  5504  002944  E109               	bnz	u2200
  5505  002946  0E03               	movlw	3
  5506  002948  5C15               	subwf	makeForme@i_329^0,w,c
  5507  00294A  A0D8               	btfss	status,0,c
  5508  00294C  EFAA  F014         	goto	u2201
  5509  002950  EFAC  F014         	goto	u2200
  5510  002954                     u2201:
  5511  002954  EF52  F014         	goto	l3411
  5512  002958                     u2200:
  5513  002958  EF88  F016         	goto	l224
  5514  00295C                     l3435:
  5515                           
  5516                           ;../V3.X/formes.c: 31:    for(unsigned short i = 0; i < 3; i++){
  5517  00295C  0E00               	movlw	0
  5518  00295E  6E1A               	movwf	(makeForme@i_331+1)^0,c
  5519  002960  0E00               	movlw	0
  5520  002962  6E19               	movwf	makeForme@i_331^0,c
  5521  002964                     l3441:
  5522                           
  5523                           ;../V3.X/formes.c: 32:     for(unsigned short j = 0; j < 2; j++){
  5524  002964  0E00               	movlw	0
  5525  002966  6E1C               	movwf	(makeForme@j_332+1)^0,c
  5526  002968  0E00               	movlw	0
  5527  00296A  6E1B               	movwf	makeForme@j_332^0,c
  5528  00296C                     l3447:
  5529                           
  5530                           ;../V3.X/formes.c: 33:      if(!((i == 1 && j == 1) || (i == 2 && j == 1)))
  5531  00296C  0419               	decf	makeForme@i_331^0,w,c
  5532  00296E  101A               	iorwf	(makeForme@i_331+1)^0,w,c
  5533  002970  A4D8               	btfss	status,2,c
  5534  002972  EFBD  F014         	goto	u2211
  5535  002976  EFBF  F014         	goto	u2210
  5536  00297A                     u2211:
  5537  00297A  EFC8  F014         	goto	l3451
  5538  00297E                     u2210:
  5539  00297E  041B               	decf	makeForme@j_332^0,w,c
  5540  002980  101C               	iorwf	(makeForme@j_332+1)^0,w,c
  5541  002982  B4D8               	btfsc	status,2,c
  5542  002984  EFC6  F014         	goto	u2221
  5543  002988  EFC8  F014         	goto	u2220
  5544  00298C                     u2221:
  5545  00298C  EFF2  F014         	goto	l3457
  5546  002990                     u2220:
  5547  002990                     l3451:
  5548  002990  0E02               	movlw	2
  5549  002992  1819               	xorwf	makeForme@i_331^0,w,c
  5550  002994  101A               	iorwf	(makeForme@i_331+1)^0,w,c
  5551  002996  A4D8               	btfss	status,2,c
  5552  002998  EFD0  F014         	goto	u2231
  5553  00299C  EFD2  F014         	goto	u2230
  5554  0029A0                     u2231:
  5555  0029A0  EFDB  F014         	goto	l3455
  5556  0029A4                     u2230:
  5557  0029A4  041B               	decf	makeForme@j_332^0,w,c
  5558  0029A6  101C               	iorwf	(makeForme@j_332+1)^0,w,c
  5559  0029A8  B4D8               	btfsc	status,2,c
  5560  0029AA  EFD9  F014         	goto	u2241
  5561  0029AE  EFDB  F014         	goto	u2240
  5562  0029B2                     u2241:
  5563  0029B2  EFF2  F014         	goto	l3457
  5564  0029B6                     u2240:
  5565  0029B6                     l3455:
  5566                           
  5567                           ;../V3.X/formes.c: 34:       forme[i][j] = 1;
  5568  0029B6  C019  F005         	movff	makeForme@i_331,??_makeForme
  5569  0029BA  C01A  F006         	movff	makeForme@i_331+1,??_makeForme+1
  5570  0029BE  90D8               	bcf	status,0,c
  5571  0029C0  3605               	rlcf	??_makeForme^0,f,c
  5572  0029C2  3606               	rlcf	(??_makeForme+1)^0,f,c
  5573  0029C4  C001  F007         	movff	makeForme@forme,??_makeForme+2
  5574  0029C8  C002  F008         	movff	makeForme@forme+1,??_makeForme+3
  5575  0029CC  5005               	movf	??_makeForme^0,w,c
  5576  0029CE  2607               	addwf	(??_makeForme+2)^0,f,c
  5577  0029D0  5006               	movf	(??_makeForme+1)^0,w,c
  5578  0029D2  2208               	addwfc	(??_makeForme+3)^0,f,c
  5579  0029D4  501B               	movf	makeForme@j_332^0,w,c
  5580  0029D6  2407               	addwf	(??_makeForme+2)^0,w,c
  5581  0029D8  6ED9               	movwf	fsr2l,c
  5582  0029DA  501C               	movf	(makeForme@j_332+1)^0,w,c
  5583  0029DC  2008               	addwfc	(??_makeForme+3)^0,w,c
  5584  0029DE  6EDA               	movwf	fsr2h,c
  5585  0029E0  0E01               	movlw	1
  5586  0029E2  6EDF               	movwf	indf2,c
  5587  0029E4                     l3457:
  5588                           
  5589                           ;../V3.X/formes.c: 35:     }
  5590  0029E4  4A1B               	infsnz	makeForme@j_332^0,f,c
  5591  0029E6  2A1C               	incf	(makeForme@j_332+1)^0,f,c
  5592  0029E8  501C               	movf	(makeForme@j_332+1)^0,w,c
  5593  0029EA  E109               	bnz	u2250
  5594  0029EC  0E02               	movlw	2
  5595  0029EE  5C1B               	subwf	makeForme@j_332^0,w,c
  5596  0029F0  A0D8               	btfss	status,0,c
  5597  0029F2  EFFD  F014         	goto	u2251
  5598  0029F6  EFFF  F014         	goto	u2250
  5599  0029FA                     u2251:
  5600  0029FA  EFB6  F014         	goto	l3447
  5601  0029FE                     u2250:
  5602  0029FE                     
  5603                           ;../V3.X/formes.c: 36:    }
  5604  0029FE  4A19               	infsnz	makeForme@i_331^0,f,c
  5605  002A00  2A1A               	incf	(makeForme@i_331+1)^0,f,c
  5606  002A02  501A               	movf	(makeForme@i_331+1)^0,w,c
  5607  002A04  E109               	bnz	u2260
  5608  002A06  0E03               	movlw	3
  5609  002A08  5C19               	subwf	makeForme@i_331^0,w,c
  5610  002A0A  A0D8               	btfss	status,0,c
  5611  002A0C  EF0A  F015         	goto	u2261
  5612  002A10  EF0C  F015         	goto	u2260
  5613  002A14                     u2261:
  5614  002A14  EFB2  F014         	goto	l3441
  5615  002A18                     u2260:
  5616  002A18  EF88  F016         	goto	l224
  5617  002A1C                     l3465:
  5618                           
  5619                           ;../V3.X/formes.c: 40:    for(unsigned short i = 0; i < 3; i++){
  5620  002A1C  0E00               	movlw	0
  5621  002A1E  6E1E               	movwf	(makeForme@i_333+1)^0,c
  5622  002A20  0E00               	movlw	0
  5623  002A22  6E1D               	movwf	makeForme@i_333^0,c
  5624  002A24                     l3471:
  5625                           
  5626                           ;../V3.X/formes.c: 41:     for(unsigned short j = 0; j < 2; j++){
  5627  002A24  0E00               	movlw	0
  5628  002A26  6E20               	movwf	(makeForme@j_334+1)^0,c
  5629  002A28  0E00               	movlw	0
  5630  002A2A  6E1F               	movwf	makeForme@j_334^0,c
  5631  002A2C                     l3473:
  5632  002A2C  5020               	movf	(makeForme@j_334+1)^0,w,c
  5633  002A2E  E109               	bnz	u2270
  5634  002A30  0E02               	movlw	2
  5635  002A32  5C1F               	subwf	makeForme@j_334^0,w,c
  5636  002A34  A0D8               	btfss	status,0,c
  5637  002A36  EF1F  F015         	goto	u2271
  5638  002A3A  EF21  F015         	goto	u2270
  5639  002A3E                     u2271:
  5640  002A3E  EF23  F015         	goto	l3477
  5641  002A42                     u2270:
  5642  002A42  EF63  F015         	goto	l3491
  5643  002A46                     l3477:
  5644                           
  5645                           ;../V3.X/formes.c: 42:      if(!((i == 1 && j == 0) || (i == 2 && j == 0)))
  5646  002A46  041D               	decf	makeForme@i_333^0,w,c
  5647  002A48  101E               	iorwf	(makeForme@i_333+1)^0,w,c
  5648  002A4A  A4D8               	btfss	status,2,c
  5649  002A4C  EF2A  F015         	goto	u2281
  5650  002A50  EF2C  F015         	goto	u2280
  5651  002A54                     u2281:
  5652  002A54  EF35  F015         	goto	l3481
  5653  002A58                     u2280:
  5654  002A58  501F               	movf	makeForme@j_334^0,w,c
  5655  002A5A  1020               	iorwf	(makeForme@j_334+1)^0,w,c
  5656  002A5C  B4D8               	btfsc	status,2,c
  5657  002A5E  EF33  F015         	goto	u2291
  5658  002A62  EF35  F015         	goto	u2290
  5659  002A66                     u2291:
  5660  002A66  EF5F  F015         	goto	l3487
  5661  002A6A                     u2290:
  5662  002A6A                     l3481:
  5663  002A6A  0E02               	movlw	2
  5664  002A6C  181D               	xorwf	makeForme@i_333^0,w,c
  5665  002A6E  101E               	iorwf	(makeForme@i_333+1)^0,w,c
  5666  002A70  A4D8               	btfss	status,2,c
  5667  002A72  EF3D  F015         	goto	u2301
  5668  002A76  EF3F  F015         	goto	u2300
  5669  002A7A                     u2301:
  5670  002A7A  EF48  F015         	goto	l3485
  5671  002A7E                     u2300:
  5672  002A7E  501F               	movf	makeForme@j_334^0,w,c
  5673  002A80  1020               	iorwf	(makeForme@j_334+1)^0,w,c
  5674  002A82  B4D8               	btfsc	status,2,c
  5675  002A84  EF46  F015         	goto	u2311
  5676  002A88  EF48  F015         	goto	u2310
  5677  002A8C                     u2311:
  5678  002A8C  EF5F  F015         	goto	l3487
  5679  002A90                     u2310:
  5680  002A90                     l3485:
  5681                           
  5682                           ;../V3.X/formes.c: 43:       forme[i][j] = 1;
  5683  002A90  C01D  F005         	movff	makeForme@i_333,??_makeForme
  5684  002A94  C01E  F006         	movff	makeForme@i_333+1,??_makeForme+1
  5685  002A98  90D8               	bcf	status,0,c
  5686  002A9A  3605               	rlcf	??_makeForme^0,f,c
  5687  002A9C  3606               	rlcf	(??_makeForme+1)^0,f,c
  5688  002A9E  C001  F007         	movff	makeForme@forme,??_makeForme+2
  5689  002AA2  C002  F008         	movff	makeForme@forme+1,??_makeForme+3
  5690  002AA6  5005               	movf	??_makeForme^0,w,c
  5691  002AA8  2607               	addwf	(??_makeForme+2)^0,f,c
  5692  002AAA  5006               	movf	(??_makeForme+1)^0,w,c
  5693  002AAC  2208               	addwfc	(??_makeForme+3)^0,f,c
  5694  002AAE  501F               	movf	makeForme@j_334^0,w,c
  5695  002AB0  2407               	addwf	(??_makeForme+2)^0,w,c
  5696  002AB2  6ED9               	movwf	fsr2l,c
  5697  002AB4  5020               	movf	(makeForme@j_334+1)^0,w,c
  5698  002AB6  2008               	addwfc	(??_makeForme+3)^0,w,c
  5699  002AB8  6EDA               	movwf	fsr2h,c
  5700  002ABA  0E01               	movlw	1
  5701  002ABC  6EDF               	movwf	indf2,c
  5702  002ABE                     l3487:
  5703                           
  5704                           ;../V3.X/formes.c: 44:     }
  5705  002ABE  4A1F               	infsnz	makeForme@j_334^0,f,c
  5706  002AC0  2A20               	incf	(makeForme@j_334+1)^0,f,c
  5707  002AC2  EF16  F015         	goto	l3473
  5708  002AC6                     l3491:
  5709                           
  5710                           ;../V3.X/formes.c: 45:    }
  5711  002AC6  4A1D               	infsnz	makeForme@i_333^0,f,c
  5712  002AC8  2A1E               	incf	(makeForme@i_333+1)^0,f,c
  5713  002ACA  501E               	movf	(makeForme@i_333+1)^0,w,c
  5714  002ACC  E109               	bnz	u2320
  5715  002ACE  0E03               	movlw	3
  5716  002AD0  5C1D               	subwf	makeForme@i_333^0,w,c
  5717  002AD2  A0D8               	btfss	status,0,c
  5718  002AD4  EF6E  F015         	goto	u2321
  5719  002AD8  EF70  F015         	goto	u2320
  5720  002ADC                     u2321:
  5721  002ADC  EF12  F015         	goto	l3471
  5722  002AE0                     u2320:
  5723  002AE0  EF88  F016         	goto	l224
  5724  002AE4                     l3495:
  5725                           
  5726                           ;../V3.X/formes.c: 49:    for(unsigned short i = 0; i < 3; i++){
  5727  002AE4  0E00               	movlw	0
  5728  002AE6  6E22               	movwf	(makeForme@i_335+1)^0,c
  5729  002AE8  0E00               	movlw	0
  5730  002AEA  6E21               	movwf	makeForme@i_335^0,c
  5731  002AEC                     l3497:
  5732  002AEC  5022               	movf	(makeForme@i_335+1)^0,w,c
  5733  002AEE  E109               	bnz	u2330
  5734  002AF0  0E03               	movlw	3
  5735  002AF2  5C21               	subwf	makeForme@i_335^0,w,c
  5736  002AF4  A0D8               	btfss	status,0,c
  5737  002AF6  EF7F  F015         	goto	u2331
  5738  002AFA  EF81  F015         	goto	u2330
  5739  002AFE                     u2331:
  5740  002AFE  EF83  F015         	goto	l3501
  5741  002B02                     u2330:
  5742  002B02  EF88  F016         	goto	l224
  5743  002B06                     l3501:
  5744                           
  5745                           ;../V3.X/formes.c: 50:     for(unsigned short j = 0; j < 2; j++){
  5746  002B06  0E00               	movlw	0
  5747  002B08  6E24               	movwf	(makeForme@j_336+1)^0,c
  5748  002B0A  0E00               	movlw	0
  5749  002B0C  6E23               	movwf	makeForme@j_336^0,c
  5750  002B0E                     l3503:
  5751  002B0E  5024               	movf	(makeForme@j_336+1)^0,w,c
  5752  002B10  E109               	bnz	u2340
  5753  002B12  0E02               	movlw	2
  5754  002B14  5C23               	subwf	makeForme@j_336^0,w,c
  5755  002B16  A0D8               	btfss	status,0,c
  5756  002B18  EF90  F015         	goto	u2341
  5757  002B1C  EF92  F015         	goto	u2340
  5758  002B20                     u2341:
  5759  002B20  EF94  F015         	goto	l3507
  5760  002B24                     u2340:
  5761  002B24  EFD4  F015         	goto	l3521
  5762  002B28                     l3507:
  5763                           
  5764                           ;../V3.X/formes.c: 51:      if(!((i == 0 && j == 1) || (i == 2 && j == 0)))
  5765  002B28  5021               	movf	makeForme@i_335^0,w,c
  5766  002B2A  1022               	iorwf	(makeForme@i_335+1)^0,w,c
  5767  002B2C  A4D8               	btfss	status,2,c
  5768  002B2E  EF9B  F015         	goto	u2351
  5769  002B32  EF9D  F015         	goto	u2350
  5770  002B36                     u2351:
  5771  002B36  EFA6  F015         	goto	l3511
  5772  002B3A                     u2350:
  5773  002B3A  0423               	decf	makeForme@j_336^0,w,c
  5774  002B3C  1024               	iorwf	(makeForme@j_336+1)^0,w,c
  5775  002B3E  B4D8               	btfsc	status,2,c
  5776  002B40  EFA4  F015         	goto	u2361
  5777  002B44  EFA6  F015         	goto	u2360
  5778  002B48                     u2361:
  5779  002B48  EFD0  F015         	goto	l3517
  5780  002B4C                     u2360:
  5781  002B4C                     l3511:
  5782  002B4C  0E02               	movlw	2
  5783  002B4E  1821               	xorwf	makeForme@i_335^0,w,c
  5784  002B50  1022               	iorwf	(makeForme@i_335+1)^0,w,c
  5785  002B52  A4D8               	btfss	status,2,c
  5786  002B54  EFAE  F015         	goto	u2371
  5787  002B58  EFB0  F015         	goto	u2370
  5788  002B5C                     u2371:
  5789  002B5C  EFB9  F015         	goto	l3515
  5790  002B60                     u2370:
  5791  002B60  5023               	movf	makeForme@j_336^0,w,c
  5792  002B62  1024               	iorwf	(makeForme@j_336+1)^0,w,c
  5793  002B64  B4D8               	btfsc	status,2,c
  5794  002B66  EFB7  F015         	goto	u2381
  5795  002B6A  EFB9  F015         	goto	u2380
  5796  002B6E                     u2381:
  5797  002B6E  EFD0  F015         	goto	l3517
  5798  002B72                     u2380:
  5799  002B72                     l3515:
  5800                           
  5801                           ;../V3.X/formes.c: 52:       forme[i][j] = 1;
  5802  002B72  C021  F005         	movff	makeForme@i_335,??_makeForme
  5803  002B76  C022  F006         	movff	makeForme@i_335+1,??_makeForme+1
  5804  002B7A  90D8               	bcf	status,0,c
  5805  002B7C  3605               	rlcf	??_makeForme^0,f,c
  5806  002B7E  3606               	rlcf	(??_makeForme+1)^0,f,c
  5807  002B80  C001  F007         	movff	makeForme@forme,??_makeForme+2
  5808  002B84  C002  F008         	movff	makeForme@forme+1,??_makeForme+3
  5809  002B88  5005               	movf	??_makeForme^0,w,c
  5810  002B8A  2607               	addwf	(??_makeForme+2)^0,f,c
  5811  002B8C  5006               	movf	(??_makeForme+1)^0,w,c
  5812  002B8E  2208               	addwfc	(??_makeForme+3)^0,f,c
  5813  002B90  5023               	movf	makeForme@j_336^0,w,c
  5814  002B92  2407               	addwf	(??_makeForme+2)^0,w,c
  5815  002B94  6ED9               	movwf	fsr2l,c
  5816  002B96  5024               	movf	(makeForme@j_336+1)^0,w,c
  5817  002B98  2008               	addwfc	(??_makeForme+3)^0,w,c
  5818  002B9A  6EDA               	movwf	fsr2h,c
  5819  002B9C  0E01               	movlw	1
  5820  002B9E  6EDF               	movwf	indf2,c
  5821  002BA0                     l3517:
  5822                           
  5823                           ;../V3.X/formes.c: 53:     }
  5824  002BA0  4A23               	infsnz	makeForme@j_336^0,f,c
  5825  002BA2  2A24               	incf	(makeForme@j_336+1)^0,f,c
  5826  002BA4  EF87  F015         	goto	l3503
  5827  002BA8                     l3521:
  5828                           
  5829                           ;../V3.X/formes.c: 54:    }
  5830  002BA8  4A21               	infsnz	makeForme@i_335^0,f,c
  5831  002BAA  2A22               	incf	(makeForme@i_335+1)^0,f,c
  5832  002BAC  EF76  F015         	goto	l3497
  5833  002BB0                     l3525:
  5834                           
  5835                           ;../V3.X/formes.c: 58:    for(unsigned short i = 0; i < 3; i++){
  5836  002BB0  0E00               	movlw	0
  5837  002BB2  6E26               	movwf	(makeForme@i_337+1)^0,c
  5838  002BB4  0E00               	movlw	0
  5839  002BB6  6E25               	movwf	makeForme@i_337^0,c
  5840  002BB8                     l3527:
  5841  002BB8  5026               	movf	(makeForme@i_337+1)^0,w,c
  5842  002BBA  E109               	bnz	u2390
  5843  002BBC  0E03               	movlw	3
  5844  002BBE  5C25               	subwf	makeForme@i_337^0,w,c
  5845  002BC0  A0D8               	btfss	status,0,c
  5846  002BC2  EFE5  F015         	goto	u2391
  5847  002BC6  EFE7  F015         	goto	u2390
  5848  002BCA                     u2391:
  5849  002BCA  EFE9  F015         	goto	l3531
  5850  002BCE                     u2390:
  5851  002BCE  EF88  F016         	goto	l224
  5852  002BD2                     l3531:
  5853                           
  5854                           ;../V3.X/formes.c: 59:     for(unsigned short j = 0; j < 2; j++){
  5855  002BD2  0E00               	movlw	0
  5856  002BD4  6E28               	movwf	(makeForme@j_338+1)^0,c
  5857  002BD6  0E00               	movlw	0
  5858  002BD8  6E27               	movwf	makeForme@j_338^0,c
  5859  002BDA                     l3533:
  5860  002BDA  5028               	movf	(makeForme@j_338+1)^0,w,c
  5861  002BDC  E109               	bnz	u2400
  5862  002BDE  0E02               	movlw	2
  5863  002BE0  5C27               	subwf	makeForme@j_338^0,w,c
  5864  002BE2  A0D8               	btfss	status,0,c
  5865  002BE4  EFF6  F015         	goto	u2401
  5866  002BE8  EFF8  F015         	goto	u2400
  5867  002BEC                     u2401:
  5868  002BEC  EFFA  F015         	goto	l3537
  5869  002BF0                     u2400:
  5870  002BF0  EF3A  F016         	goto	l3551
  5871  002BF4                     l3537:
  5872                           
  5873                           ;../V3.X/formes.c: 60:      if(!((i == 0 && j == 0) || (i == 2 && j == 1)))
  5874  002BF4  5025               	movf	makeForme@i_337^0,w,c
  5875  002BF6  1026               	iorwf	(makeForme@i_337+1)^0,w,c
  5876  002BF8  A4D8               	btfss	status,2,c
  5877  002BFA  EF01  F016         	goto	u2411
  5878  002BFE  EF03  F016         	goto	u2410
  5879  002C02                     u2411:
  5880  002C02  EF0C  F016         	goto	l3541
  5881  002C06                     u2410:
  5882  002C06  5027               	movf	makeForme@j_338^0,w,c
  5883  002C08  1028               	iorwf	(makeForme@j_338+1)^0,w,c
  5884  002C0A  B4D8               	btfsc	status,2,c
  5885  002C0C  EF0A  F016         	goto	u2421
  5886  002C10  EF0C  F016         	goto	u2420
  5887  002C14                     u2421:
  5888  002C14  EF36  F016         	goto	l3547
  5889  002C18                     u2420:
  5890  002C18                     l3541:
  5891  002C18  0E02               	movlw	2
  5892  002C1A  1825               	xorwf	makeForme@i_337^0,w,c
  5893  002C1C  1026               	iorwf	(makeForme@i_337+1)^0,w,c
  5894  002C1E  A4D8               	btfss	status,2,c
  5895  002C20  EF14  F016         	goto	u2431
  5896  002C24  EF16  F016         	goto	u2430
  5897  002C28                     u2431:
  5898  002C28  EF1F  F016         	goto	l3545
  5899  002C2C                     u2430:
  5900  002C2C  0427               	decf	makeForme@j_338^0,w,c
  5901  002C2E  1028               	iorwf	(makeForme@j_338+1)^0,w,c
  5902  002C30  B4D8               	btfsc	status,2,c
  5903  002C32  EF1D  F016         	goto	u2441
  5904  002C36  EF1F  F016         	goto	u2440
  5905  002C3A                     u2441:
  5906  002C3A  EF36  F016         	goto	l3547
  5907  002C3E                     u2440:
  5908  002C3E                     l3545:
  5909                           
  5910                           ;../V3.X/formes.c: 61:       forme[i][j] = 1;
  5911  002C3E  C025  F005         	movff	makeForme@i_337,??_makeForme
  5912  002C42  C026  F006         	movff	makeForme@i_337+1,??_makeForme+1
  5913  002C46  90D8               	bcf	status,0,c
  5914  002C48  3605               	rlcf	??_makeForme^0,f,c
  5915  002C4A  3606               	rlcf	(??_makeForme+1)^0,f,c
  5916  002C4C  C001  F007         	movff	makeForme@forme,??_makeForme+2
  5917  002C50  C002  F008         	movff	makeForme@forme+1,??_makeForme+3
  5918  002C54  5005               	movf	??_makeForme^0,w,c
  5919  002C56  2607               	addwf	(??_makeForme+2)^0,f,c
  5920  002C58  5006               	movf	(??_makeForme+1)^0,w,c
  5921  002C5A  2208               	addwfc	(??_makeForme+3)^0,f,c
  5922  002C5C  5027               	movf	makeForme@j_338^0,w,c
  5923  002C5E  2407               	addwf	(??_makeForme+2)^0,w,c
  5924  002C60  6ED9               	movwf	fsr2l,c
  5925  002C62  5028               	movf	(makeForme@j_338+1)^0,w,c
  5926  002C64  2008               	addwfc	(??_makeForme+3)^0,w,c
  5927  002C66  6EDA               	movwf	fsr2h,c
  5928  002C68  0E01               	movlw	1
  5929  002C6A  6EDF               	movwf	indf2,c
  5930  002C6C                     l3547:
  5931                           
  5932                           ;../V3.X/formes.c: 62:     }
  5933  002C6C  4A27               	infsnz	makeForme@j_338^0,f,c
  5934  002C6E  2A28               	incf	(makeForme@j_338+1)^0,f,c
  5935  002C70  EFED  F015         	goto	l3533
  5936  002C74                     l3551:
  5937                           
  5938                           ;../V3.X/formes.c: 63:    }
  5939  002C74  4A25               	infsnz	makeForme@i_337^0,f,c
  5940  002C76  2A26               	incf	(makeForme@i_337+1)^0,f,c
  5941  002C78  EFDC  F015         	goto	l3527
  5942  002C7C                     l3555:
  5943                           
  5944                           ;../V3.X/formes.c: 66:     for(unsigned short i = 0; i < 4; i++)
  5945  002C7C  0E00               	movlw	0
  5946  002C7E  6E14               	movwf	(makeForme@i_339+1)^0,c
  5947  002C80  0E00               	movlw	0
  5948  002C82  6E13               	movwf	makeForme@i_339^0,c
  5949  002C84                     l3557:
  5950  002C84  5014               	movf	(makeForme@i_339+1)^0,w,c
  5951  002C86  E109               	bnz	u2450
  5952  002C88  0E04               	movlw	4
  5953  002C8A  5C13               	subwf	makeForme@i_339^0,w,c
  5954  002C8C  A0D8               	btfss	status,0,c
  5955  002C8E  EF4B  F016         	goto	u2451
  5956  002C92  EF4D  F016         	goto	u2450
  5957  002C96                     u2451:
  5958  002C96  EF4F  F016         	goto	l3561
  5959  002C9A                     u2450:
  5960  002C9A  EF88  F016         	goto	l224
  5961  002C9E                     l3561:
  5962                           
  5963                           ;../V3.X/formes.c: 67:      forme[i][0] = 1;
  5964  002C9E  90D8               	bcf	status,0,c
  5965  002CA0  3413               	rlcf	makeForme@i_339^0,w,c
  5966  002CA2  6ED9               	movwf	fsr2l,c
  5967  002CA4  3414               	rlcf	(makeForme@i_339+1)^0,w,c
  5968  002CA6  6EDA               	movwf	fsr2h,c
  5969  002CA8  5001               	movf	makeForme@forme^0,w,c
  5970  002CAA  26D9               	addwf	fsr2l,f,c
  5971  002CAC  5002               	movf	(makeForme@forme+1)^0,w,c
  5972  002CAE  22DA               	addwfc	fsr2h,f,c
  5973  002CB0  0E01               	movlw	1
  5974  002CB2  6EDF               	movwf	indf2,c
  5975  002CB4  4A13               	infsnz	makeForme@i_339^0,f,c
  5976  002CB6  2A14               	incf	(makeForme@i_339+1)^0,f,c
  5977  002CB8  EF42  F016         	goto	l3557
  5978  002CBC                     l3569:
  5979  002CBC  C003  F005         	movff	makeForme@i,??_makeForme
  5980  002CC0  C004  F006         	movff	makeForme@i+1,??_makeForme+1
  5981                           
  5982                           ; Switch on 2 bytes has been partitioned into a top level switch of size 1, and 1 sub-sw
      +                          itches
  5983                           ; Switch size 1, requested type "simple"
  5984                           ; Number of cases is 1, Range of values is 0 to 0
  5985                           ; switch strategies available:
  5986                           ; Name         Instructions Cycles
  5987                           ; simple_byte            4     3 (average)
  5988                           ;	Chosen strategy is simple_byte
  5989  002CC4  5006               	movf	(??_makeForme+1)^0,w,c
  5990  002CC6  0A00               	xorlw	0	; case 0
  5991  002CC8  B4D8               	btfsc	status,2,c
  5992  002CCA  EF69  F016         	goto	l4293
  5993  002CCE  EF3E  F016         	goto	l3555
  5994  002CD2                     l4293:
  5995                           
  5996                           ; Switch size 1, requested type "simple"
  5997                           ; Number of cases is 7, Range of values is 0 to 6
  5998                           ; switch strategies available:
  5999                           ; Name         Instructions Cycles
  6000                           ; simple_byte           22    12 (average)
  6001                           ;	Chosen strategy is simple_byte
  6002  002CD2  5005               	movf	??_makeForme^0,w,c
  6003  002CD4  0A00               	xorlw	0	; case 0
  6004  002CD6  B4D8               	btfsc	status,2,c
  6005  002CD8  EFF5  F013         	goto	l3371
  6006  002CDC  0A01               	xorlw	1	; case 1
  6007  002CDE  B4D8               	btfsc	status,2,c
  6008  002CE0  EF13  F014         	goto	l3383
  6009  002CE4  0A03               	xorlw	3	; case 2
  6010  002CE6  B4D8               	btfsc	status,2,c
  6011  002CE8  EF4E  F014         	goto	l3405
  6012  002CEC  0A01               	xorlw	1	; case 3
  6013  002CEE  B4D8               	btfsc	status,2,c
  6014  002CF0  EFAE  F014         	goto	l3435
  6015  002CF4  0A07               	xorlw	7	; case 4
  6016  002CF6  B4D8               	btfsc	status,2,c
  6017  002CF8  EF0E  F015         	goto	l3465
  6018  002CFC  0A01               	xorlw	1	; case 5
  6019  002CFE  B4D8               	btfsc	status,2,c
  6020  002D00  EF72  F015         	goto	l3495
  6021  002D04  0A03               	xorlw	3	; case 6
  6022  002D06  B4D8               	btfsc	status,2,c
  6023  002D08  EFD8  F015         	goto	l3525
  6024  002D0C  EF3E  F016         	goto	l3555
  6025  002D10                     l224:
  6026  002D10  0012               	return		;funcret
  6027  002D12                     __end_of_makeForme:
  6028                           	opt callstack 0
  6029                           
  6030 ;; *************** function _initMyPIC18F *****************
  6031 ;; Defined at:
  6032 ;;		line 4 in file "../V3.X/init.c"
  6033 ;; Parameters:    Size  Location     Type
  6034 ;;		None
  6035 ;; Auto vars:     Size  Location     Type
  6036 ;;		None
  6037 ;; Return value:  Size  Location     Type
  6038 ;;                  1    wreg      void 
  6039 ;; Registers used:
  6040 ;;		wreg, status,2
  6041 ;; Tracked objects:
  6042 ;;		On entry : 0/0
  6043 ;;		On exit  : 0/0
  6044 ;;		Unchanged: 0/0
  6045 ;; Data sizes:     COMRAM   BANK0   BANK1   BANK4
  6046 ;;      Params:         0       0       0       0
  6047 ;;      Locals:         0       0       0       0
  6048 ;;      Temps:          0       0       0       0
  6049 ;;      Totals:         0       0       0       0
  6050 ;;Total ram usage:        0 bytes
  6051 ;; Hardware stack levels used:    1
  6052 ;; This function calls:
  6053 ;;		Nothing
  6054 ;; This function is called by:
  6055 ;;		_main
  6056 ;; This function uses a non-reentrant model
  6057 ;;
  6058                           
  6059                           	psect	text11
  6060  00132C                     __ptext11:
  6061                           	opt callstack 0
  6062  00132C                     _initMyPIC18F:
  6063                           	opt callstack 30
  6064  00132C                     
  6065                           ;../V3.X/init.c: 7:  ADCON1 = 0x0F ;
  6066  00132C  0E0F               	movlw	15
  6067  00132E  6EC1               	movwf	193,c	;volatile
  6068                           
  6069                           ;../V3.X/init.c: 8:  ADCON0 = 0;
  6070  001330  0E00               	movlw	0
  6071  001332  6EC2               	movwf	194,c	;volatile
  6072                           
  6073                           ;../V3.X/init.c: 11:  TRISA = 0x00;
  6074  001334  0E00               	movlw	0
  6075  001336  6E92               	movwf	146,c	;volatile
  6076                           
  6077                           ;../V3.X/init.c: 12:  TRISB = 0x00;
  6078  001338  0E00               	movlw	0
  6079  00133A  6E93               	movwf	147,c	;volatile
  6080                           
  6081                           ;../V3.X/init.c: 13:  TRISC = 0x00;
  6082  00133C  0E00               	movlw	0
  6083  00133E  6E94               	movwf	148,c	;volatile
  6084                           
  6085                           ;../V3.X/init.c: 14:  TRISD = 0x00;
  6086  001340  0E00               	movlw	0
  6087  001342  6E95               	movwf	149,c	;volatile
  6088  001344                     
  6089                           ;../V3.X/init.c: 15:  TRISE = 0xFF;
  6090  001344  6896               	setf	150,c	;volatile
  6091                           
  6092                           ;../V3.X/init.c: 18:  PORTA = 0x00;
  6093  001346  0E00               	movlw	0
  6094  001348  6E80               	movwf	128,c	;volatile
  6095                           
  6096                           ;../V3.X/init.c: 19:  PORTB = 0x00;
  6097  00134A  0E00               	movlw	0
  6098  00134C  6E81               	movwf	129,c	;volatile
  6099                           
  6100                           ;../V3.X/init.c: 20:  PORTC = 0x00;
  6101  00134E  0E00               	movlw	0
  6102  001350  6E82               	movwf	130,c	;volatile
  6103                           
  6104                           ;../V3.X/init.c: 21:  PORTD = 0x00;
  6105  001352  0E00               	movlw	0
  6106  001354  6E83               	movwf	131,c	;volatile
  6107                           
  6108                           ;../V3.X/init.c: 22:  PORTE = 0x00;
  6109  001356  0E00               	movlw	0
  6110  001358  6E84               	movwf	132,c	;volatile
  6111  00135A  0012               	return		;funcret
  6112  00135C                     __end_of_initMyPIC18F:
  6113                           	opt callstack 0
  6114                           
  6115 ;; *************** function _glcd_print_tab *****************
  6116 ;; Defined at:
  6117 ;;		line 230 in file "../V3.X/glcd.c"
  6118 ;; Parameters:    Size  Location     Type
  6119 ;;  tabAffichage    2   27[COMRAM] PTR unsigned char [10]
  6120 ;;		 -> main@tab(220), 
  6121 ;; Auto vars:     Size  Location     Type
  6122 ;;  j               1   33[COMRAM] unsigned char 
  6123 ;;  i               1   32[COMRAM] unsigned char 
  6124 ;; Return value:  Size  Location     Type
  6125 ;;                  1    wreg      void 
  6126 ;; Registers used:
  6127 ;;		wreg, fsr2l, fsr2h, status,2, status,0, prodl, prodh, cstack
  6128 ;; Tracked objects:
  6129 ;;		On entry : 0/0
  6130 ;;		On exit  : 0/0
  6131 ;;		Unchanged: 0/0
  6132 ;; Data sizes:     COMRAM   BANK0   BANK1   BANK4
  6133 ;;      Params:         2       0       0       0
  6134 ;;      Locals:         2       0       0       0
  6135 ;;      Temps:          3       0       0       0
  6136 ;;      Totals:         7       0       0       0
  6137 ;;Total ram usage:        7 bytes
  6138 ;; Hardware stack levels used:    1
  6139 ;; Hardware stack levels required when called:    4
  6140 ;; This function calls:
  6141 ;;		_glcd_Rect
  6142 ;;		_glcd_draw_cube
  6143 ;; This function is called by:
  6144 ;;		_main
  6145 ;; This function uses a non-reentrant model
  6146 ;;
  6147                           
  6148                           	psect	text12
  6149  001B5E                     __ptext12:
  6150                           	opt callstack 0
  6151  001B5E                     _glcd_print_tab:
  6152                           	opt callstack 26
  6153  001B5E                     
  6154                           ;../V3.X/glcd.c: 230: void glcd_print_tab(unsigned char tabAffichage[22][10]);../V3.X/gl
      +                          cd.c: 231: {;../V3.X/glcd.c: 232:     glcd_Rect(1,21,90,62,1);
  6155  001B5E  0E15               	movlw	21
  6156  001B60  6E12               	movwf	glcd_Rect@ys^0,c
  6157  001B62  0E5A               	movlw	90
  6158  001B64  6E13               	movwf	glcd_Rect@xe^0,c
  6159  001B66  0E3E               	movlw	62
  6160  001B68  6E14               	movwf	glcd_Rect@ye^0,c
  6161  001B6A  0E01               	movlw	1
  6162  001B6C  6E15               	movwf	glcd_Rect@color^0,c
  6163  001B6E  0E01               	movlw	1
  6164  001B70  EC50  F00D         	call	_glcd_Rect
  6165  001B74                     
  6166                           ;../V3.X/glcd.c: 233:     unsigned char i,j;;../V3.X/glcd.c: 235:     for(i=0;i<=9;i++)
  6167  001B74  0E00               	movlw	0
  6168  001B76  6E21               	movwf	glcd_print_tab@i^0,c
  6169  001B78                     l3325:
  6170                           
  6171                           ;../V3.X/glcd.c: 236:       {;../V3.X/glcd.c: 237:          for(j=0;j<=21;j++)
  6172  001B78  0E00               	movlw	0
  6173  001B7A  6E22               	movwf	glcd_print_tab@j^0,c
  6174  001B7C                     l3331:
  6175                           
  6176                           ;../V3.X/glcd.c: 238:            {;../V3.X/glcd.c: 239:               if( tabAffichage[j
      +                          ][i] == 1)
  6177  001B7C  5022               	movf	glcd_print_tab@j^0,w,c
  6178  001B7E  0D0A               	mullw	10
  6179  001B80  C01C  F01E         	movff	glcd_print_tab@tabAffichage,??_glcd_print_tab
  6180  001B84  C01D  F01F         	movff	glcd_print_tab@tabAffichage+1,??_glcd_print_tab+1
  6181  001B88  50F3               	movf	243,w,c
  6182  001B8A  261E               	addwf	??_glcd_print_tab^0,f,c
  6183  001B8C  50F4               	movf	244,w,c
  6184  001B8E  221F               	addwfc	(??_glcd_print_tab+1)^0,f,c
  6185  001B90  5021               	movf	glcd_print_tab@i^0,w,c
  6186  001B92  241E               	addwf	??_glcd_print_tab^0,w,c
  6187  001B94  6ED9               	movwf	fsr2l,c
  6188  001B96  0E00               	movlw	0
  6189  001B98  201F               	addwfc	(??_glcd_print_tab+1)^0,w,c
  6190  001B9A  6EDA               	movwf	fsr2h,c
  6191  001B9C  04DE               	decf	postinc2,w,c
  6192  001B9E  A4D8               	btfss	status,2,c
  6193  001BA0  EFD4  F00D         	goto	u2061
  6194  001BA4  EFD6  F00D         	goto	u2060
  6195  001BA8                     u2061:
  6196  001BA8  EFDD  F00D         	goto	l3335
  6197  001BAC                     u2060:
  6198  001BAC                     
  6199                           ;../V3.X/glcd.c: 240:               {;../V3.X/glcd.c: 241:                  glcd_draw_cu
      +                          be(i,j,1);
  6200  001BAC  C022  F019         	movff	glcd_print_tab@j,glcd_draw_cube@x
  6201  001BB0  0E01               	movlw	1
  6202  001BB2  6E1A               	movwf	glcd_draw_cube@color^0,c
  6203  001BB4  5021               	movf	glcd_print_tab@i^0,w,c
  6204  001BB6  ECB4  F00A         	call	_glcd_draw_cube
  6205  001BBA                     l3335:
  6206                           
  6207                           ;../V3.X/glcd.c: 243:               if( tabAffichage[j][i] == 0)
  6208  001BBA  5022               	movf	glcd_print_tab@j^0,w,c
  6209  001BBC  0D0A               	mullw	10
  6210  001BBE  C01C  F01E         	movff	glcd_print_tab@tabAffichage,??_glcd_print_tab
  6211  001BC2  C01D  F01F         	movff	glcd_print_tab@tabAffichage+1,??_glcd_print_tab+1
  6212  001BC6  50F3               	movf	243,w,c
  6213  001BC8  261E               	addwf	??_glcd_print_tab^0,f,c
  6214  001BCA  50F4               	movf	244,w,c
  6215  001BCC  221F               	addwfc	(??_glcd_print_tab+1)^0,f,c
  6216  001BCE  5021               	movf	glcd_print_tab@i^0,w,c
  6217  001BD0  241E               	addwf	??_glcd_print_tab^0,w,c
  6218  001BD2  6ED9               	movwf	fsr2l,c
  6219  001BD4  0E00               	movlw	0
  6220  001BD6  201F               	addwfc	(??_glcd_print_tab+1)^0,w,c
  6221  001BD8  6EDA               	movwf	fsr2h,c
  6222  001BDA  50DF               	movf	indf2,w,c
  6223  001BDC  A4D8               	btfss	status,2,c
  6224  001BDE  EFF3  F00D         	goto	u2071
  6225  001BE2  EFF5  F00D         	goto	u2070
  6226  001BE6                     u2071:
  6227  001BE6  EFFC  F00D         	goto	l3339
  6228  001BEA                     u2070:
  6229  001BEA                     
  6230                           ;../V3.X/glcd.c: 244:               {;../V3.X/glcd.c: 245:                  glcd_draw_cu
      +                          be(i,j,0);
  6231  001BEA  C022  F019         	movff	glcd_print_tab@j,glcd_draw_cube@x
  6232  001BEE  0E00               	movlw	0
  6233  001BF0  6E1A               	movwf	glcd_draw_cube@color^0,c
  6234  001BF2  5021               	movf	glcd_print_tab@i^0,w,c
  6235  001BF4  ECB4  F00A         	call	_glcd_draw_cube
  6236  001BF8                     l3339:
  6237                           
  6238                           ;../V3.X/glcd.c: 247:            }
  6239  001BF8  2A22               	incf	glcd_print_tab@j^0,f,c
  6240  001BFA  0E15               	movlw	21
  6241  001BFC  6422               	cpfsgt	glcd_print_tab@j^0,c
  6242  001BFE  EF03  F00E         	goto	u2081
  6243  001C02  EF05  F00E         	goto	u2080
  6244  001C06                     u2081:
  6245  001C06  EFBE  F00D         	goto	l3331
  6246  001C0A                     u2080:
  6247  001C0A                     
  6248                           ;../V3.X/glcd.c: 248:       }
  6249  001C0A  2A21               	incf	glcd_print_tab@i^0,f,c
  6250  001C0C  0E09               	movlw	9
  6251  001C0E  6421               	cpfsgt	glcd_print_tab@i^0,c
  6252  001C10  EF0C  F00E         	goto	u2091
  6253  001C14  EF0E  F00E         	goto	u2090
  6254  001C18                     u2091:
  6255  001C18  EFBC  F00D         	goto	l3325
  6256  001C1C                     u2090:
  6257  001C1C  0012               	return		;funcret
  6258  001C1E                     __end_of_glcd_print_tab:
  6259                           	opt callstack 0
  6260                           
  6261 ;; *************** function _glcd_draw_shape *****************
  6262 ;; Defined at:
  6263 ;;		line 260 in file "../V3.X/glcd.c"
  6264 ;; Parameters:    Size  Location     Type
  6265 ;;  forme           2   27[COMRAM] PTR unsigned char [2]
  6266 ;;		 -> main@prevForme(8), main@forme(8), 
  6267 ;;  color           1   29[COMRAM] unsigned char 
  6268 ;; Auto vars:     Size  Location     Type
  6269 ;;  j               1   34[COMRAM] unsigned char 
  6270 ;; Return value:  Size  Location     Type
  6271 ;;                  1    wreg      void 
  6272 ;; Registers used:
  6273 ;;		wreg, fsr2l, fsr2h, status,2, status,0, prodl, prodh, cstack
  6274 ;; Tracked objects:
  6275 ;;		On entry : 0/0
  6276 ;;		On exit  : 0/0
  6277 ;;		Unchanged: 0/0
  6278 ;; Data sizes:     COMRAM   BANK0   BANK1   BANK4
  6279 ;;      Params:         3       0       0       0
  6280 ;;      Locals:         1       0       0       0
  6281 ;;      Temps:          4       0       0       0
  6282 ;;      Totals:         8       0       0       0
  6283 ;;Total ram usage:        8 bytes
  6284 ;; Hardware stack levels used:    1
  6285 ;; Hardware stack levels required when called:    4
  6286 ;; This function calls:
  6287 ;;		_glcd_draw_cube
  6288 ;; This function is called by:
  6289 ;;		_main
  6290 ;; This function uses a non-reentrant model
  6291 ;;
  6292                           
  6293                           	psect	text13
  6294  00150A                     __ptext13:
  6295                           	opt callstack 0
  6296  00150A                     _glcd_draw_shape:
  6297                           	opt callstack 26
  6298  00150A                     
  6299                           ;../V3.X/glcd.c: 260: void glcd_draw_shape(unsigned char forme[4][2], unsigned char colo
      +                          r);../V3.X/glcd.c: 261: {;../V3.X/glcd.c: 263:     unsigned char j;;../V3.X/glcd.c: 267:
      +                               for(j=0;j<=3;j++)
  6300  00150A  0E00               	movlw	0
  6301  00150C  6E23               	movwf	glcd_draw_shape@j^0,c
  6302  00150E                     l3719:
  6303                           
  6304                           ;../V3.X/glcd.c: 268:       {;../V3.X/glcd.c: 269:         glcd_draw_cube(forme[j][1],fo
      +                          rme[j][0],color);
  6305  00150E  5023               	movf	glcd_draw_shape@j^0,w,c
  6306  001510  0D02               	mullw	2
  6307  001512  CFF3 F01F          	movff	prodl,??_glcd_draw_shape
  6308  001516  CFF4 F020          	movff	prodh,??_glcd_draw_shape+1
  6309  00151A  501F               	movf	??_glcd_draw_shape^0,w,c
  6310  00151C  241C               	addwf	glcd_draw_shape@forme^0,w,c
  6311  00151E  6ED9               	movwf	fsr2l,c
  6312  001520  5020               	movf	(??_glcd_draw_shape+1)^0,w,c
  6313  001522  201D               	addwfc	(glcd_draw_shape@forme+1)^0,w,c
  6314  001524  6EDA               	movwf	fsr2h,c
  6315  001526  50DF               	movf	indf2,w,c
  6316  001528  6E19               	movwf	glcd_draw_cube@x^0,c
  6317  00152A  C01E  F01A         	movff	glcd_draw_shape@color,glcd_draw_cube@color
  6318  00152E  5023               	movf	glcd_draw_shape@j^0,w,c
  6319  001530  0D02               	mullw	2
  6320  001532  C01C  F021         	movff	glcd_draw_shape@forme,??_glcd_draw_shape+2
  6321  001536  C01D  F022         	movff	glcd_draw_shape@forme+1,??_glcd_draw_shape+3
  6322  00153A  50F3               	movf	243,w,c
  6323  00153C  2621               	addwf	(??_glcd_draw_shape+2)^0,f,c
  6324  00153E  50F4               	movf	244,w,c
  6325  001540  2222               	addwfc	(??_glcd_draw_shape+3)^0,f,c
  6326  001542  0E01               	movlw	1
  6327  001544  2421               	addwf	(??_glcd_draw_shape+2)^0,w,c
  6328  001546  6ED9               	movwf	fsr2l,c
  6329  001548  0E00               	movlw	0
  6330  00154A  2022               	addwfc	(??_glcd_draw_shape+3)^0,w,c
  6331  00154C  6EDA               	movwf	fsr2h,c
  6332  00154E  50DF               	movf	indf2,w,c
  6333  001550  ECB4  F00A         	call	_glcd_draw_cube
  6334  001554                     
  6335                           ;../V3.X/glcd.c: 270:       }
  6336  001554  2A23               	incf	glcd_draw_shape@j^0,f,c
  6337  001556  0E03               	movlw	3
  6338  001558  6423               	cpfsgt	glcd_draw_shape@j^0,c
  6339  00155A  EFB1  F00A         	goto	u2611
  6340  00155E  EFB3  F00A         	goto	u2610
  6341  001562                     u2611:
  6342  001562  EF87  F00A         	goto	l3719
  6343  001566                     u2610:
  6344  001566  0012               	return		;funcret
  6345  001568                     __end_of_glcd_draw_shape:
  6346                           	opt callstack 0
  6347                           
  6348 ;; *************** function _glcd_draw_cube *****************
  6349 ;; Defined at:
  6350 ;;		line 252 in file "../V3.X/glcd.c"
  6351 ;; Parameters:    Size  Location     Type
  6352 ;;  y               1    wreg     unsigned char 
  6353 ;;  x               1   24[COMRAM] unsigned char 
  6354 ;;  color           1   25[COMRAM] unsigned char 
  6355 ;; Auto vars:     Size  Location     Type
  6356 ;;  y               1   26[COMRAM] unsigned char 
  6357 ;; Return value:  Size  Location     Type
  6358 ;;                  1    wreg      void 
  6359 ;; Registers used:
  6360 ;;		wreg, status,2, status,0, prodl, prodh, cstack
  6361 ;; Tracked objects:
  6362 ;;		On entry : 0/0
  6363 ;;		On exit  : 0/0
  6364 ;;		Unchanged: 0/0
  6365 ;; Data sizes:     COMRAM   BANK0   BANK1   BANK4
  6366 ;;      Params:         2       0       0       0
  6367 ;;      Locals:         1       0       0       0
  6368 ;;      Temps:          0       0       0       0
  6369 ;;      Totals:         3       0       0       0
  6370 ;;Total ram usage:        3 bytes
  6371 ;; Hardware stack levels used:    1
  6372 ;; Hardware stack levels required when called:    3
  6373 ;; This function calls:
  6374 ;;		_glcd_Rect
  6375 ;; This function is called by:
  6376 ;;		_menuTetris
  6377 ;;		_glcd_print_tab
  6378 ;;		_glcd_draw_shape
  6379 ;; This function uses a non-reentrant model
  6380 ;;
  6381                           
  6382                           	psect	text14
  6383  001568                     __ptext14:
  6384                           	opt callstack 0
  6385  001568                     _glcd_draw_cube:
  6386                           	opt callstack 25
  6387                           
  6388                           ;incstack = 0
  6389                           ;glcd_draw_cube@y stored from wreg
  6390  001568  6E1B               	movwf	glcd_draw_cube@y^0,c
  6391  00156A                     
  6392                           ;../V3.X/glcd.c: 252: void glcd_draw_cube(unsigned char y, unsigned char x, unsigned cha
      +                          r color);../V3.X/glcd.c: 253: {;../V3.X/glcd.c: 255:     glcd_Rect(4*(x+1) - 2, 61 - 4*y
      +                           - 3 , 4*(x+1) + 1 , 61 - 4*y ,color);
  6393  00156A  501B               	movf	glcd_draw_cube@y^0,w,c
  6394  00156C  0DFC               	mullw	-4
  6395  00156E  50F3               	movf	243,w,c
  6396  001570  0F3A               	addlw	58
  6397  001572  6E12               	movwf	glcd_Rect@ys^0,c
  6398  001574  5019               	movf	glcd_draw_cube@x^0,w,c
  6399  001576  0D04               	mullw	4
  6400  001578  50F3               	movf	243,w,c
  6401  00157A  0F05               	addlw	5
  6402  00157C  6E13               	movwf	glcd_Rect@xe^0,c
  6403  00157E  501B               	movf	glcd_draw_cube@y^0,w,c
  6404  001580  0DFC               	mullw	-4
  6405  001582  50F3               	movf	243,w,c
  6406  001584  0F3D               	addlw	61
  6407  001586  6E14               	movwf	glcd_Rect@ye^0,c
  6408  001588  C01A  F015         	movff	glcd_draw_cube@color,glcd_Rect@color
  6409  00158C  5019               	movf	glcd_draw_cube@x^0,w,c
  6410  00158E  0D04               	mullw	4
  6411  001590  50F3               	movf	243,w,c
  6412  001592  0F02               	addlw	2
  6413  001594  EC50  F00D         	call	_glcd_Rect
  6414                           
  6415                           ;../V3.X/glcd.c: 256:     glcd_Rect(4*(x+1) - 1, 61 - 4*y - 2 , 4*(x+1) , 61 - 4*y - 1 ,
      +                          color);
  6416  001598  501B               	movf	glcd_draw_cube@y^0,w,c
  6417  00159A  0DFC               	mullw	-4
  6418  00159C  50F3               	movf	243,w,c
  6419  00159E  0F3B               	addlw	59
  6420  0015A0  6E12               	movwf	glcd_Rect@ys^0,c
  6421  0015A2  5019               	movf	glcd_draw_cube@x^0,w,c
  6422  0015A4  0D04               	mullw	4
  6423  0015A6  50F3               	movf	243,w,c
  6424  0015A8  0F04               	addlw	4
  6425  0015AA  6E13               	movwf	glcd_Rect@xe^0,c
  6426  0015AC  501B               	movf	glcd_draw_cube@y^0,w,c
  6427  0015AE  0DFC               	mullw	-4
  6428  0015B0  50F3               	movf	243,w,c
  6429  0015B2  0F3C               	addlw	60
  6430  0015B4  6E14               	movwf	glcd_Rect@ye^0,c
  6431  0015B6  C01A  F015         	movff	glcd_draw_cube@color,glcd_Rect@color
  6432  0015BA  5019               	movf	glcd_draw_cube@x^0,w,c
  6433  0015BC  0D04               	mullw	4
  6434  0015BE  50F3               	movf	243,w,c
  6435  0015C0  0F03               	addlw	3
  6436  0015C2  EC50  F00D         	call	_glcd_Rect
  6437  0015C6  0012               	return		;funcret
  6438  0015C8                     __end_of_glcd_draw_cube:
  6439                           	opt callstack 0
  6440                           
  6441 ;; *************** function _glcd_Rect *****************
  6442 ;; Defined at:
  6443 ;;		line 213 in file "../V3.X/glcd.c"
  6444 ;; Parameters:    Size  Location     Type
  6445 ;;  xs              1    wreg     unsigned char 
  6446 ;;  ys              1   17[COMRAM] unsigned char 
  6447 ;;  xe              1   18[COMRAM] unsigned char 
  6448 ;;  ye              1   19[COMRAM] unsigned char 
  6449 ;;  color           1   20[COMRAM] unsigned char 
  6450 ;; Auto vars:     Size  Location     Type
  6451 ;;  xs              1   21[COMRAM] unsigned char 
  6452 ;;  j               1   23[COMRAM] unsigned char 
  6453 ;;  i               1   22[COMRAM] unsigned char 
  6454 ;; Return value:  Size  Location     Type
  6455 ;;                  1    wreg      void 
  6456 ;; Registers used:
  6457 ;;		wreg, status,2, status,0, cstack
  6458 ;; Tracked objects:
  6459 ;;		On entry : 0/0
  6460 ;;		On exit  : 0/0
  6461 ;;		Unchanged: 0/0
  6462 ;; Data sizes:     COMRAM   BANK0   BANK1   BANK4
  6463 ;;      Params:         4       0       0       0
  6464 ;;      Locals:         3       0       0       0
  6465 ;;      Temps:          0       0       0       0
  6466 ;;      Totals:         7       0       0       0
  6467 ;;Total ram usage:        7 bytes
  6468 ;; Hardware stack levels used:    1
  6469 ;; Hardware stack levels required when called:    2
  6470 ;; This function calls:
  6471 ;;		_glcd_PlotPixel
  6472 ;; This function is called by:
  6473 ;;		_glcd_print_tab
  6474 ;;		_glcd_draw_cube
  6475 ;; This function uses a non-reentrant model
  6476 ;;
  6477                           
  6478                           	psect	text15
  6479  001AA0                     __ptext15:
  6480                           	opt callstack 0
  6481  001AA0                     _glcd_Rect:
  6482                           	opt callstack 25
  6483                           
  6484                           ;incstack = 0
  6485                           ;glcd_Rect@xs stored from wreg
  6486  001AA0  6E16               	movwf	glcd_Rect@xs^0,c
  6487  001AA2                     
  6488                           ;../V3.X/glcd.c: 213: void glcd_Rect(unsigned char xs, unsigned char ys, unsigned char x
      +                          e ,unsigned char ye,unsigned char color);../V3.X/glcd.c: 214: {;../V3.X/glcd.c: 215:    
      +                          unsigned char i,j;;../V3.X/glcd.c: 216:    if (ys>ye) return;
  6489  001AA2  5012               	movf	glcd_Rect@ys^0,w,c
  6490  001AA4  5C14               	subwf	glcd_Rect@ye^0,w,c
  6491  001AA6  B0D8               	btfsc	status,0,c
  6492  001AA8  EF58  F00D         	goto	u1841
  6493  001AAC  EF5A  F00D         	goto	u1840
  6494  001AB0                     u1841:
  6495  001AB0  EF5C  F00D         	goto	l2807
  6496  001AB4                     u1840:
  6497  001AB4  EFAE  F00D         	goto	l321
  6498  001AB8                     l2807:
  6499                           
  6500                           ;../V3.X/glcd.c: 217:    if (xs>xe) return;
  6501  001AB8  5016               	movf	glcd_Rect@xs^0,w,c
  6502  001ABA  5C13               	subwf	glcd_Rect@xe^0,w,c
  6503  001ABC  B0D8               	btfsc	status,0,c
  6504  001ABE  EF63  F00D         	goto	u1851
  6505  001AC2  EF65  F00D         	goto	u1850
  6506  001AC6                     u1851:
  6507  001AC6  EF67  F00D         	goto	l322
  6508  001ACA                     u1850:
  6509  001ACA  EFAE  F00D         	goto	l321
  6510  001ACE                     l322:
  6511                           
  6512                           ;../V3.X/glcd.c: 219:    for(i=xs;i<=xe;i++)
  6513  001ACE  C016  F017         	movff	glcd_Rect@xs,glcd_Rect@i
  6514  001AD2  EFA5  F00D         	goto	l2827
  6515  001AD6                     l324:
  6516                           
  6517                           ;../V3.X/glcd.c: 220:      {;../V3.X/glcd.c: 221:         for(j=ys;j<=ye;j++)
  6518  001AD6  C012  F018         	movff	glcd_Rect@ys,glcd_Rect@j
  6519  001ADA  EF9B  F00D         	goto	l2823
  6520  001ADE                     l2811:
  6521                           
  6522                           ;../V3.X/glcd.c: 222:           {;../V3.X/glcd.c: 223:              if( i == xs || i ==x
      +                          e || j == ye || j == ys )
  6523  001ADE  5016               	movf	glcd_Rect@xs^0,w,c
  6524  001AE0  1817               	xorwf	glcd_Rect@i^0,w,c
  6525  001AE2  B4D8               	btfsc	status,2,c
  6526  001AE4  EF76  F00D         	goto	u1861
  6527  001AE8  EF78  F00D         	goto	u1860
  6528  001AEC                     u1861:
  6529  001AEC  EF93  F00D         	goto	l2819
  6530  001AF0                     u1860:
  6531  001AF0  5013               	movf	glcd_Rect@xe^0,w,c
  6532  001AF2  1817               	xorwf	glcd_Rect@i^0,w,c
  6533  001AF4  B4D8               	btfsc	status,2,c
  6534  001AF6  EF7F  F00D         	goto	u1871
  6535  001AFA  EF81  F00D         	goto	u1870
  6536  001AFE                     u1871:
  6537  001AFE  EF93  F00D         	goto	l2819
  6538  001B02                     u1870:
  6539  001B02  5014               	movf	glcd_Rect@ye^0,w,c
  6540  001B04  1818               	xorwf	glcd_Rect@j^0,w,c
  6541  001B06  B4D8               	btfsc	status,2,c
  6542  001B08  EF88  F00D         	goto	u1881
  6543  001B0C  EF8A  F00D         	goto	u1880
  6544  001B10                     u1881:
  6545  001B10  EF93  F00D         	goto	l2819
  6546  001B14                     u1880:
  6547  001B14  5012               	movf	glcd_Rect@ys^0,w,c
  6548  001B16  1818               	xorwf	glcd_Rect@j^0,w,c
  6549  001B18  A4D8               	btfss	status,2,c
  6550  001B1A  EF91  F00D         	goto	u1891
  6551  001B1E  EF93  F00D         	goto	u1890
  6552  001B22                     u1891:
  6553  001B22  EF9A  F00D         	goto	l2821
  6554  001B26                     u1890:
  6555  001B26                     l2819:
  6556                           
  6557                           ;../V3.X/glcd.c: 224:                glcd_PlotPixel(i,j,color);
  6558  001B26  C018  F00B         	movff	glcd_Rect@j,glcd_PlotPixel@ypos
  6559  001B2A  C015  F00C         	movff	glcd_Rect@color,glcd_PlotPixel@color
  6560  001B2E  5017               	movf	glcd_Rect@i^0,w,c
  6561  001B30  EC71  F00E         	call	_glcd_PlotPixel
  6562  001B34                     l2821:
  6563                           
  6564                           ;../V3.X/glcd.c: 225:           }
  6565  001B34  2A18               	incf	glcd_Rect@j^0,f,c
  6566  001B36                     l2823:
  6567  001B36  5018               	movf	glcd_Rect@j^0,w,c
  6568  001B38  5C14               	subwf	glcd_Rect@ye^0,w,c
  6569  001B3A  B0D8               	btfsc	status,0,c
  6570  001B3C  EFA2  F00D         	goto	u1901
  6571  001B40  EFA4  F00D         	goto	u1900
  6572  001B44                     u1901:
  6573  001B44  EF6F  F00D         	goto	l2811
  6574  001B48                     u1900:
  6575  001B48                     
  6576                           ;../V3.X/glcd.c: 226:      }
  6577  001B48  2A17               	incf	glcd_Rect@i^0,f,c
  6578  001B4A                     l2827:
  6579  001B4A  5017               	movf	glcd_Rect@i^0,w,c
  6580  001B4C  5C13               	subwf	glcd_Rect@xe^0,w,c
  6581  001B4E  B0D8               	btfsc	status,0,c
  6582  001B50  EFAC  F00D         	goto	u1911
  6583  001B54  EFAE  F00D         	goto	u1910
  6584  001B58                     u1911:
  6585  001B58  EF6B  F00D         	goto	l324
  6586  001B5C                     u1910:
  6587  001B5C                     l321:
  6588  001B5C  0012               	return		;funcret
  6589  001B5E                     __end_of_glcd_Rect:
  6590                           	opt callstack 0
  6591                           
  6592 ;; *************** function _glcd_PlotPixel *****************
  6593 ;; Defined at:
  6594 ;;		line 148 in file "../V3.X/glcd.c"
  6595 ;; Parameters:    Size  Location     Type
  6596 ;;  xpos            1    wreg     unsigned char 
  6597 ;;  ypos            1   10[COMRAM] unsigned char 
  6598 ;;  color           1   11[COMRAM] unsigned char 
  6599 ;; Auto vars:     Size  Location     Type
  6600 ;;  xpos            1   14[COMRAM] unsigned char 
  6601 ;;  side            1   16[COMRAM] unsigned char 
  6602 ;;  data            1   15[COMRAM] unsigned char 
  6603 ;; Return value:  Size  Location     Type
  6604 ;;                  1    wreg      void 
  6605 ;; Registers used:
  6606 ;;		wreg, status,2, status,0, cstack
  6607 ;; Tracked objects:
  6608 ;;		On entry : 0/0
  6609 ;;		On exit  : 0/0
  6610 ;;		Unchanged: 0/0
  6611 ;; Data sizes:     COMRAM   BANK0   BANK1   BANK4
  6612 ;;      Params:         2       0       0       0
  6613 ;;      Locals:         3       0       0       0
  6614 ;;      Temps:          2       0       0       0
  6615 ;;      Totals:         7       0       0       0
  6616 ;;Total ram usage:        7 bytes
  6617 ;; Hardware stack levels used:    1
  6618 ;; Hardware stack levels required when called:    1
  6619 ;; This function calls:
  6620 ;;		___awdiv
  6621 ;;		_glcd_ReadByte
  6622 ;;		_glcd_WriteByte
  6623 ;; This function is called by:
  6624 ;;		_affMenu
  6625 ;;		_glcd_Rect
  6626 ;; This function uses a non-reentrant model
  6627 ;;
  6628                           
  6629                           	psect	text16
  6630  001CE2                     __ptext16:
  6631                           	opt callstack 0
  6632  001CE2                     _glcd_PlotPixel:
  6633                           	opt callstack 25
  6634                           
  6635                           ;incstack = 0
  6636                           ;glcd_PlotPixel@xpos stored from wreg
  6637  001CE2  6E0F               	movwf	glcd_PlotPixel@xpos^0,c
  6638  001CE4                     
  6639                           ;../V3.X/glcd.c: 148: void glcd_PlotPixel(unsigned char xpos, unsigned char ypos, unsign
      +                          ed char color);../V3.X/glcd.c: 149: {;../V3.X/glcd.c: 150:     unsigned char data;;../V3
      +                          .X/glcd.c: 151:     unsigned char side = 0;
  6640  001CE4  0E00               	movlw	0
  6641  001CE6  6E11               	movwf	glcd_PlotPixel@side^0,c
  6642  001CE8                     
  6643                           ;../V3.X/glcd.c: 153:     if(xpos > 63)
  6644  001CE8  0E3F               	movlw	63
  6645  001CEA  640F               	cpfsgt	glcd_PlotPixel@xpos^0,c
  6646  001CEC  EF7A  F00E         	goto	u1801
  6647  001CF0  EF7C  F00E         	goto	u1800
  6648  001CF4                     u1801:
  6649  001CF4  EF80  F00E         	goto	l2775
  6650  001CF8                     u1800:
  6651  001CF8                     
  6652                           ;../V3.X/glcd.c: 154:     {;../V3.X/glcd.c: 155:        xpos -= 64;
  6653  001CF8  0E40               	movlw	64
  6654  001CFA  5E0F               	subwf	glcd_PlotPixel@xpos^0,f,c
  6655  001CFC                     
  6656                           ;../V3.X/glcd.c: 156:        side = 1;
  6657  001CFC  0E01               	movlw	1
  6658  001CFE  6E11               	movwf	glcd_PlotPixel@side^0,c
  6659  001D00                     l2775:
  6660                           
  6661                           ;../V3.X/glcd.c: 158:     LATBbits.LATB2=0;
  6662  001D00  948A               	bcf	138,2,c	;volatile
  6663  001D02                     
  6664                           ;../V3.X/glcd.c: 160:  xpos &=0b01111111;
  6665  001D02  9E0F               	bcf	glcd_PlotPixel@xpos^0,7,c
  6666  001D04                     
  6667                           ;../V3.X/glcd.c: 161:  xpos |=0b01000000;
  6668  001D04  8C0F               	bsf	glcd_PlotPixel@xpos^0,6,c
  6669  001D06                     
  6670                           ;../V3.X/glcd.c: 162:  glcd_WriteByte(side, (xpos));
  6671  001D06  C00F  F009         	movff	glcd_PlotPixel@xpos,glcd_WriteByte@data
  6672  001D0A  5011               	movf	glcd_PlotPixel@side^0,w,c
  6673  001D0C  ECDF  F009         	call	_glcd_WriteByte
  6674                           
  6675                           ;../V3.X/glcd.c: 163:  glcd_WriteByte(side, (((ypos/8)) & 0xBF) | 0xB8);
  6676  001D10  C00B  F001         	movff	glcd_PlotPixel@ypos,___awdiv@dividend
  6677  001D14  6A02               	clrf	(___awdiv@dividend+1)^0,c
  6678  001D16  0E00               	movlw	0
  6679  001D18  6E04               	movwf	(___awdiv@divisor+1)^0,c
  6680  001D1A  0E08               	movlw	8
  6681  001D1C  6E03               	movwf	___awdiv@divisor^0,c
  6682  001D1E  EC0F  F00E         	call	___awdiv	;wreg free
  6683  001D22  5001               	movf	?___awdiv^0,w,c
  6684  001D24  0BBF               	andlw	191
  6685  001D26  09B8               	iorlw	184
  6686  001D28  6E09               	movwf	glcd_WriteByte@data^0,c
  6687  001D2A  5011               	movf	glcd_PlotPixel@side^0,w,c
  6688  001D2C  ECDF  F009         	call	_glcd_WriteByte
  6689  001D30                     
  6690                           ;../V3.X/glcd.c: 165:  LATBbits.LATB2=1;
  6691  001D30  848A               	bsf	138,2,c	;volatile
  6692  001D32                     
  6693                           ;../V3.X/glcd.c: 167:  glcd_ReadByte(side);
  6694  001D32  5011               	movf	glcd_PlotPixel@side^0,w,c
  6695  001D34  ECFC  F009         	call	_glcd_ReadByte
  6696  001D38                     
  6697                           ;../V3.X/glcd.c: 168:  data = glcd_ReadByte(side);
  6698  001D38  5011               	movf	glcd_PlotPixel@side^0,w,c
  6699  001D3A  ECFC  F009         	call	_glcd_ReadByte
  6700  001D3E  6E10               	movwf	glcd_PlotPixel@data^0,c
  6701  001D40                     
  6702                           ;../V3.X/glcd.c: 170:  LATBbits.LATB2=0;
  6703  001D40  948A               	bcf	138,2,c	;volatile
  6704  001D42                     
  6705                           ;../V3.X/glcd.c: 172:  glcd_WriteByte(side, xpos);
  6706  001D42  C00F  F009         	movff	glcd_PlotPixel@xpos,glcd_WriteByte@data
  6707  001D46  5011               	movf	glcd_PlotPixel@side^0,w,c
  6708  001D48  ECDF  F009         	call	_glcd_WriteByte
  6709  001D4C                     
  6710                           ;../V3.X/glcd.c: 174:  if(color)
  6711  001D4C  500C               	movf	glcd_PlotPixel@color^0,w,c
  6712  001D4E  B4D8               	btfsc	status,2,c
  6713  001D50  EFAC  F00E         	goto	u1811
  6714  001D54  EFAE  F00E         	goto	u1810
  6715  001D58                     u1811:
  6716  001D58  EFC1  F00E         	goto	l2797
  6717  001D5C                     u1810:
  6718  001D5C                     
  6719                           ;../V3.X/glcd.c: 175:   data=(data)|(1<<(ypos%8));
  6720  001D5C  C00B  F00D         	movff	glcd_PlotPixel@ypos,??_glcd_PlotPixel
  6721  001D60  0E07               	movlw	7
  6722  001D62  160D               	andwf	??_glcd_PlotPixel^0,f,c
  6723  001D64  0E01               	movlw	1
  6724  001D66  6E0E               	movwf	(??_glcd_PlotPixel+1)^0,c
  6725  001D68  2A0D               	incf	??_glcd_PlotPixel^0,f,c
  6726  001D6A  EFB9  F00E         	goto	u1824
  6727  001D6E                     u1825:
  6728  001D6E  90D8               	bcf	status,0,c
  6729  001D70  360E               	rlcf	(??_glcd_PlotPixel+1)^0,f,c
  6730  001D72                     u1824:
  6731  001D72  2E0D               	decfsz	??_glcd_PlotPixel^0,f,c
  6732  001D74  EFB7  F00E         	goto	u1825
  6733  001D78  500E               	movf	(??_glcd_PlotPixel+1)^0,w,c
  6734  001D7A  1010               	iorwf	glcd_PlotPixel@data^0,w,c
  6735  001D7C  6E10               	movwf	glcd_PlotPixel@data^0,c
  6736  001D7E  EFD3  F00E         	goto	l2799
  6737  001D82                     l2797:
  6738                           
  6739                           ;../V3.X/glcd.c: 177:   data =(data)&(~(1<<(ypos%8)));
  6740  001D82  C00B  F00D         	movff	glcd_PlotPixel@ypos,??_glcd_PlotPixel
  6741  001D86  0E07               	movlw	7
  6742  001D88  160D               	andwf	??_glcd_PlotPixel^0,f,c
  6743  001D8A  0E01               	movlw	1
  6744  001D8C  6E0E               	movwf	(??_glcd_PlotPixel+1)^0,c
  6745  001D8E  2A0D               	incf	??_glcd_PlotPixel^0,f,c
  6746  001D90  EFCC  F00E         	goto	u1834
  6747  001D94                     u1835:
  6748  001D94  90D8               	bcf	status,0,c
  6749  001D96  360E               	rlcf	(??_glcd_PlotPixel+1)^0,f,c
  6750  001D98                     u1834:
  6751  001D98  2E0D               	decfsz	??_glcd_PlotPixel^0,f,c
  6752  001D9A  EFCA  F00E         	goto	u1835
  6753  001D9E  500E               	movf	(??_glcd_PlotPixel+1)^0,w,c
  6754  001DA0  0AFF               	xorlw	255
  6755  001DA2  1410               	andwf	glcd_PlotPixel@data^0,w,c
  6756  001DA4  6E10               	movwf	glcd_PlotPixel@data^0,c
  6757  001DA6                     l2799:
  6758                           
  6759                           ;../V3.X/glcd.c: 179:  LATBbits.LATB2=1;
  6760  001DA6  848A               	bsf	138,2,c	;volatile
  6761  001DA8                     
  6762                           ;../V3.X/glcd.c: 181:  glcd_WriteByte(side, data);
  6763  001DA8  C010  F009         	movff	glcd_PlotPixel@data,glcd_WriteByte@data
  6764  001DAC  5011               	movf	glcd_PlotPixel@side^0,w,c
  6765  001DAE  ECDF  F009         	call	_glcd_WriteByte
  6766  001DB2  0012               	return		;funcret
  6767  001DB4                     __end_of_glcd_PlotPixel:
  6768                           	opt callstack 0
  6769                           
  6770 ;; *************** function _glcd_ReadByte *****************
  6771 ;; Defined at:
  6772 ;;		line 112 in file "../V3.X/glcd.c"
  6773 ;; Parameters:    Size  Location     Type
  6774 ;;  side            1    wreg     unsigned char 
  6775 ;; Auto vars:     Size  Location     Type
  6776 ;;  side            1    0[COMRAM] unsigned char 
  6777 ;;  data            1    1[COMRAM] unsigned char 
  6778 ;; Return value:  Size  Location     Type
  6779 ;;                  1    wreg      unsigned char 
  6780 ;; Registers used:
  6781 ;;		wreg, status,2
  6782 ;; Tracked objects:
  6783 ;;		On entry : 0/0
  6784 ;;		On exit  : 0/0
  6785 ;;		Unchanged: 0/0
  6786 ;; Data sizes:     COMRAM   BANK0   BANK1   BANK4
  6787 ;;      Params:         0       0       0       0
  6788 ;;      Locals:         2       0       0       0
  6789 ;;      Temps:          0       0       0       0
  6790 ;;      Totals:         2       0       0       0
  6791 ;;Total ram usage:        2 bytes
  6792 ;; Hardware stack levels used:    1
  6793 ;; This function calls:
  6794 ;;		Nothing
  6795 ;; This function is called by:
  6796 ;;		_glcd_PlotPixel
  6797 ;; This function uses a non-reentrant model
  6798 ;;
  6799                           
  6800                           	psect	text17
  6801  0013F8                     __ptext17:
  6802                           	opt callstack 0
  6803  0013F8                     _glcd_ReadByte:
  6804                           	opt callstack 25
  6805                           
  6806                           ;incstack = 0
  6807                           ;glcd_ReadByte@side stored from wreg
  6808  0013F8  6E01               	movwf	glcd_ReadByte@side^0,c
  6809  0013FA                     
  6810                           ;../V3.X/glcd.c: 112: unsigned char glcd_ReadByte(unsigned char side);../V3.X/glcd.c: 11
      +                          3: {;../V3.X/glcd.c: 114: unsigned char data;;../V3.X/glcd.c: 116:  if(side)
  6811  0013FA  5001               	movf	glcd_ReadByte@side^0,w,c
  6812  0013FC  B4D8               	btfsc	status,2,c
  6813  0013FE  EF03  F00A         	goto	u1731
  6814  001402  EF05  F00A         	goto	u1730
  6815  001406                     u1731:
  6816  001406  EF09  F00A         	goto	l302
  6817  00140A                     u1730:
  6818  00140A                     
  6819                           ;../V3.X/glcd.c: 117:  {;../V3.X/glcd.c: 118:       LATBbits.LATB0 = 1;
  6820  00140A  808A               	bsf	138,0,c	;volatile
  6821                           
  6822                           ;../V3.X/glcd.c: 119:   LATBbits.LATB1 = 0;
  6823  00140C  928A               	bcf	138,1,c	;volatile
  6824                           
  6825                           ;../V3.X/glcd.c: 120:  }
  6826  00140E  EF0B  F00A         	goto	l303
  6827  001412                     l302:
  6828                           
  6829                           ;../V3.X/glcd.c: 122:  {;../V3.X/glcd.c: 123:   LATBbits.LATB1 = 0;
  6830  001412  928A               	bcf	138,1,c	;volatile
  6831                           
  6832                           ;../V3.X/glcd.c: 124:        LATBbits.LATB1 = 1;
  6833  001414  828A               	bsf	138,1,c	;volatile
  6834  001416                     l303:
  6835                           
  6836                           ;../V3.X/glcd.c: 127:  TRISD = 0xFF;
  6837  001416  6895               	setf	149,c	;volatile
  6838                           
  6839                           ;../V3.X/glcd.c: 128:  LATBbits.LATB3 = 1;
  6840  001418  868A               	bsf	138,3,c	;volatile
  6841                           
  6842                           ;../V3.X/glcd.c: 132:  LATBbits.LATB4 = 1;
  6843  00141A  888A               	bsf	138,4,c	;volatile
  6844                           
  6845                           ;../V3.X/glcd.c: 133:  _delay((unsigned long)((1)*(8000000/4000000.0)));
  6846  00141C  F000 F000          	nop2		;2 cycle nop
  6847                           
  6848                           ;../V3.X/glcd.c: 135:  data = PORTD;
  6849  001420  CF83 F002          	movff	3971,glcd_ReadByte@data	;volatile
  6850                           
  6851                           ;../V3.X/glcd.c: 136:  LATBbits.LATB4 = 0;
  6852  001424  988A               	bcf	138,4,c	;volatile
  6853                           
  6854                           ;../V3.X/glcd.c: 137:  _delay((unsigned long)((1)*(8000000/4000000.0)));
  6855  001426  F000 F000          	nop2		;2 cycle nop
  6856                           
  6857                           ;../V3.X/glcd.c: 139:  LATBbits.LATB0 = 0;
  6858  00142A  908A               	bcf	138,0,c	;volatile
  6859                           
  6860                           ;../V3.X/glcd.c: 140:  LATBbits.LATB1 = 0;
  6861  00142C  928A               	bcf	138,1,c	;volatile
  6862                           
  6863                           ;../V3.X/glcd.c: 142:  return data;
  6864  00142E  5002               	movf	glcd_ReadByte@data^0,w,c
  6865  001430  0012               	return		;funcret
  6866  001432                     __end_of_glcd_ReadByte:
  6867                           	opt callstack 0
  6868                           
  6869 ;; *************** function ___awdiv *****************
  6870 ;; Defined at:
  6871 ;;		line 7 in file "C:\Program Files (x86)\Microchip\xc8\v2.10\pic\sources\c99\common\awdiv.c"
  6872 ;; Parameters:    Size  Location     Type
  6873 ;;  dividend        2    0[COMRAM] int 
  6874 ;;  divisor         2    2[COMRAM] int 
  6875 ;; Auto vars:     Size  Location     Type
  6876 ;;  quotient        2    6[COMRAM] int 
  6877 ;;  sign            1    5[COMRAM] unsigned char 
  6878 ;;  counter         1    4[COMRAM] unsigned char 
  6879 ;; Return value:  Size  Location     Type
  6880 ;;                  2    0[COMRAM] int 
  6881 ;; Registers used:
  6882 ;;		wreg, status,2, status,0
  6883 ;; Tracked objects:
  6884 ;;		On entry : 0/0
  6885 ;;		On exit  : 0/0
  6886 ;;		Unchanged: 0/0
  6887 ;; Data sizes:     COMRAM   BANK0   BANK1   BANK4
  6888 ;;      Params:         4       0       0       0
  6889 ;;      Locals:         4       0       0       0
  6890 ;;      Temps:          0       0       0       0
  6891 ;;      Totals:         8       0       0       0
  6892 ;;Total ram usage:        8 bytes
  6893 ;; Hardware stack levels used:    1
  6894 ;; This function calls:
  6895 ;;		Nothing
  6896 ;; This function is called by:
  6897 ;;		_glcd_PlotPixel
  6898 ;;		_musique
  6899 ;; This function uses a non-reentrant model
  6900 ;;
  6901                           
  6902                           	psect	text18
  6903  001C1E                     __ptext18:
  6904                           	opt callstack 0
  6905  001C1E                     ___awdiv:
  6906                           	opt callstack 25
  6907  001C1E  0E00               	movlw	0
  6908  001C20  6E06               	movwf	___awdiv@sign^0,c
  6909  001C22  BE04               	btfsc	(___awdiv@divisor+1)^0,7,c
  6910  001C24  EF18  F00E         	goto	u1740
  6911  001C28  EF16  F00E         	goto	u1741
  6912  001C2C                     u1741:
  6913  001C2C  EF1E  F00E         	goto	l2731
  6914  001C30                     u1740:
  6915  001C30  6C03               	negf	___awdiv@divisor^0,c
  6916  001C32  1E04               	comf	(___awdiv@divisor+1)^0,f,c
  6917  001C34  B0D8               	btfsc	status,0,c
  6918  001C36  2A04               	incf	(___awdiv@divisor+1)^0,f,c
  6919  001C38  0E01               	movlw	1
  6920  001C3A  6E06               	movwf	___awdiv@sign^0,c
  6921  001C3C                     l2731:
  6922  001C3C  BE02               	btfsc	(___awdiv@dividend+1)^0,7,c
  6923  001C3E  EF25  F00E         	goto	u1750
  6924  001C42  EF23  F00E         	goto	u1751
  6925  001C46                     u1751:
  6926  001C46  EF2B  F00E         	goto	l2737
  6927  001C4A                     u1750:
  6928  001C4A  6C01               	negf	___awdiv@dividend^0,c
  6929  001C4C  1E02               	comf	(___awdiv@dividend+1)^0,f,c
  6930  001C4E  B0D8               	btfsc	status,0,c
  6931  001C50  2A02               	incf	(___awdiv@dividend+1)^0,f,c
  6932  001C52  0E01               	movlw	1
  6933  001C54  1A06               	xorwf	___awdiv@sign^0,f,c
  6934  001C56                     l2737:
  6935  001C56  0E00               	movlw	0
  6936  001C58  6E08               	movwf	(___awdiv@quotient+1)^0,c
  6937  001C5A  0E00               	movlw	0
  6938  001C5C  6E07               	movwf	___awdiv@quotient^0,c
  6939  001C5E  5003               	movf	___awdiv@divisor^0,w,c
  6940  001C60  1004               	iorwf	(___awdiv@divisor+1)^0,w,c
  6941  001C62  B4D8               	btfsc	status,2,c
  6942  001C64  EF36  F00E         	goto	u1761
  6943  001C68  EF38  F00E         	goto	u1760
  6944  001C6C                     u1761:
  6945  001C6C  EF60  F00E         	goto	l2759
  6946  001C70                     u1760:
  6947  001C70  0E01               	movlw	1
  6948  001C72  6E05               	movwf	___awdiv@counter^0,c
  6949  001C74  EF40  F00E         	goto	l2745
  6950  001C78                     l2743:
  6951  001C78  90D8               	bcf	status,0,c
  6952  001C7A  3603               	rlcf	___awdiv@divisor^0,f,c
  6953  001C7C  3604               	rlcf	(___awdiv@divisor+1)^0,f,c
  6954  001C7E  2A05               	incf	___awdiv@counter^0,f,c
  6955  001C80                     l2745:
  6956  001C80  AE04               	btfss	(___awdiv@divisor+1)^0,7,c
  6957  001C82  EF45  F00E         	goto	u1771
  6958  001C86  EF47  F00E         	goto	u1770
  6959  001C8A                     u1771:
  6960  001C8A  EF3C  F00E         	goto	l2743
  6961  001C8E                     u1770:
  6962  001C8E                     l2747:
  6963  001C8E  90D8               	bcf	status,0,c
  6964  001C90  3607               	rlcf	___awdiv@quotient^0,f,c
  6965  001C92  3608               	rlcf	(___awdiv@quotient+1)^0,f,c
  6966  001C94  5003               	movf	___awdiv@divisor^0,w,c
  6967  001C96  5C01               	subwf	___awdiv@dividend^0,w,c
  6968  001C98  5004               	movf	(___awdiv@divisor+1)^0,w,c
  6969  001C9A  5802               	subwfb	(___awdiv@dividend+1)^0,w,c
  6970  001C9C  A0D8               	btfss	status,0,c
  6971  001C9E  EF53  F00E         	goto	u1781
  6972  001CA2  EF55  F00E         	goto	u1780
  6973  001CA6                     u1781:
  6974  001CA6  EF5A  F00E         	goto	l2755
  6975  001CAA                     u1780:
  6976  001CAA  5003               	movf	___awdiv@divisor^0,w,c
  6977  001CAC  5E01               	subwf	___awdiv@dividend^0,f,c
  6978  001CAE  5004               	movf	(___awdiv@divisor+1)^0,w,c
  6979  001CB0  5A02               	subwfb	(___awdiv@dividend+1)^0,f,c
  6980  001CB2  8007               	bsf	___awdiv@quotient^0,0,c
  6981  001CB4                     l2755:
  6982  001CB4  90D8               	bcf	status,0,c
  6983  001CB6  3204               	rrcf	(___awdiv@divisor+1)^0,f,c
  6984  001CB8  3203               	rrcf	___awdiv@divisor^0,f,c
  6985  001CBA  2E05               	decfsz	___awdiv@counter^0,f,c
  6986  001CBC  EF47  F00E         	goto	l2747
  6987  001CC0                     l2759:
  6988  001CC0  5006               	movf	___awdiv@sign^0,w,c
  6989  001CC2  B4D8               	btfsc	status,2,c
  6990  001CC4  EF66  F00E         	goto	u1791
  6991  001CC8  EF68  F00E         	goto	u1790
  6992  001CCC                     u1791:
  6993  001CCC  EF6C  F00E         	goto	l2763
  6994  001CD0                     u1790:
  6995  001CD0  6C07               	negf	___awdiv@quotient^0,c
  6996  001CD2  1E08               	comf	(___awdiv@quotient+1)^0,f,c
  6997  001CD4  B0D8               	btfsc	status,0,c
  6998  001CD6  2A08               	incf	(___awdiv@quotient+1)^0,f,c
  6999  001CD8                     l2763:
  7000  001CD8  C007  F001         	movff	___awdiv@quotient,?___awdiv
  7001  001CDC  C008  F002         	movff	___awdiv@quotient+1,?___awdiv+1
  7002  001CE0  0012               	return		;funcret
  7003  001CE2                     __end_of___awdiv:
  7004                           	opt callstack 0
  7005                           
  7006 ;; *************** function _glcd_SetCursor *****************
  7007 ;; Defined at:
  7008 ;;		line 187 in file "../V3.X/glcd.c"
  7009 ;; Parameters:    Size  Location     Type
  7010 ;;  xpos            1    wreg     unsigned char 
  7011 ;;  ypos            1   10[COMRAM] unsigned char 
  7012 ;; Auto vars:     Size  Location     Type
  7013 ;;  xpos            1   12[COMRAM] unsigned char 
  7014 ;;  side            1   11[COMRAM] unsigned char 
  7015 ;; Return value:  Size  Location     Type
  7016 ;;                  1    wreg      void 
  7017 ;; Registers used:
  7018 ;;		wreg, status,2, status,0, cstack
  7019 ;; Tracked objects:
  7020 ;;		On entry : 0/0
  7021 ;;		On exit  : 0/0
  7022 ;;		Unchanged: 0/0
  7023 ;; Data sizes:     COMRAM   BANK0   BANK1   BANK4
  7024 ;;      Params:         1       0       0       0
  7025 ;;      Locals:         2       0       0       0
  7026 ;;      Temps:          0       0       0       0
  7027 ;;      Totals:         3       0       0       0
  7028 ;;Total ram usage:        3 bytes
  7029 ;; Hardware stack levels used:    1
  7030 ;; Hardware stack levels required when called:    1
  7031 ;; This function calls:
  7032 ;;		_glcd_WriteByte
  7033 ;; This function is called by:
  7034 ;;		_main
  7035 ;; This function uses a non-reentrant model
  7036 ;;
  7037                           
  7038                           	psect	text19
  7039  00162C                     __ptext19:
  7040                           	opt callstack 0
  7041  00162C                     _glcd_SetCursor:
  7042                           	opt callstack 29
  7043                           
  7044                           ;incstack = 0
  7045                           ;glcd_SetCursor@xpos stored from wreg
  7046  00162C  6E0D               	movwf	glcd_SetCursor@xpos^0,c
  7047  00162E                     
  7048                           ;../V3.X/glcd.c: 187: void glcd_SetCursor(unsigned char xpos,unsigned char ypos);../V3.X
      +                          /glcd.c: 188: {;../V3.X/glcd.c: 189:  unsigned char side = 0;
  7049  00162E  0E00               	movlw	0
  7050  001630  6E0C               	movwf	glcd_SetCursor@side^0,c
  7051  001632                     
  7052                           ;../V3.X/glcd.c: 191:  if(xpos > 127 | ypos > 7)
  7053  001632  0E80               	movlw	128
  7054  001634  600D               	cpfslt	glcd_SetCursor@xpos^0,c
  7055  001636  EF1F  F00B         	goto	u1991
  7056  00163A  EF21  F00B         	goto	u1990
  7057  00163E                     u1991:
  7058  00163E  EF49  F00B         	goto	l316
  7059  001642                     u1990:
  7060  001642  0E07               	movlw	7
  7061  001644  640B               	cpfsgt	glcd_SetCursor@ypos^0,c
  7062  001646  EF27  F00B         	goto	u2001
  7063  00164A  EF29  F00B         	goto	u2000
  7064  00164E                     u2001:
  7065  00164E  EF2B  F00B         	goto	l313
  7066  001652                     u2000:
  7067  001652  EF49  F00B         	goto	l316
  7068  001656                     l313:
  7069                           
  7070                           ;../V3.X/glcd.c: 194:  x = xpos;
  7071  001656  C00D  F05F         	movff	glcd_SetCursor@xpos,_x
  7072                           
  7073                           ;../V3.X/glcd.c: 195:  y = ypos;
  7074  00165A  C00B  F0AC         	movff	glcd_SetCursor@ypos,_y
  7075  00165E                     
  7076                           ;../V3.X/glcd.c: 197:     if(xpos > 63)
  7077  00165E  0E3F               	movlw	63
  7078  001660  640D               	cpfsgt	glcd_SetCursor@xpos^0,c
  7079  001662  EF35  F00B         	goto	u2011
  7080  001666  EF37  F00B         	goto	u2010
  7081  00166A                     u2011:
  7082  00166A  EF3B  F00B         	goto	l3277
  7083  00166E                     u2010:
  7084  00166E                     
  7085                           ;../V3.X/glcd.c: 198:     {;../V3.X/glcd.c: 199:       xpos -= 64;
  7086  00166E  0E40               	movlw	64
  7087  001670  5E0D               	subwf	glcd_SetCursor@xpos^0,f,c
  7088  001672                     
  7089                           ;../V3.X/glcd.c: 200:       side = 1;
  7090  001672  0E01               	movlw	1
  7091  001674  6E0C               	movwf	glcd_SetCursor@side^0,c
  7092  001676                     l3277:
  7093                           
  7094                           ;../V3.X/glcd.c: 203:  LATBbits.LATB2=0;
  7095  001676  948A               	bcf	138,2,c	;volatile
  7096  001678                     
  7097                           ;../V3.X/glcd.c: 204:   glcd_WriteByte(side, 0x40 | xpos);
  7098  001678  500D               	movf	glcd_SetCursor@xpos^0,w,c
  7099  00167A  0940               	iorlw	64
  7100  00167C  6E09               	movwf	glcd_WriteByte@data^0,c
  7101  00167E  500C               	movf	glcd_SetCursor@side^0,w,c
  7102  001680  ECDF  F009         	call	_glcd_WriteByte
  7103  001684                     
  7104                           ;../V3.X/glcd.c: 205:   glcd_WriteByte(side, 0xB8 | ypos);
  7105  001684  500B               	movf	glcd_SetCursor@ypos^0,w,c
  7106  001686  09B8               	iorlw	184
  7107  001688  6E09               	movwf	glcd_WriteByte@data^0,c
  7108  00168A  500C               	movf	glcd_SetCursor@side^0,w,c
  7109  00168C  ECDF  F009         	call	_glcd_WriteByte
  7110  001690                     
  7111                           ;../V3.X/glcd.c: 206:  LATBbits.LATB2=1;
  7112  001690  848A               	bsf	138,2,c	;volatile
  7113  001692                     l316:
  7114  001692  0012               	return		;funcret
  7115  001694                     __end_of_glcd_SetCursor:
  7116                           	opt callstack 0
  7117                           
  7118 ;; *************** function _glcd_Init *****************
  7119 ;; Defined at:
  7120 ;;		line 13 in file "../V3.X/glcd.c"
  7121 ;; Parameters:    Size  Location     Type
  7122 ;;  mode            1    wreg     unsigned char 
  7123 ;; Auto vars:     Size  Location     Type
  7124 ;;  mode            1   13[COMRAM] unsigned char 
  7125 ;; Return value:  Size  Location     Type
  7126 ;;                  1    wreg      void 
  7127 ;; Registers used:
  7128 ;;		wreg, status,2, status,0, prodl, prodh, cstack
  7129 ;; Tracked objects:
  7130 ;;		On entry : 0/0
  7131 ;;		On exit  : 0/0
  7132 ;;		Unchanged: 0/0
  7133 ;; Data sizes:     COMRAM   BANK0   BANK1   BANK4
  7134 ;;      Params:         0       0       0       0
  7135 ;;      Locals:         1       0       0       0
  7136 ;;      Temps:          0       0       0       0
  7137 ;;      Totals:         1       0       0       0
  7138 ;;Total ram usage:        1 bytes
  7139 ;; Hardware stack levels used:    1
  7140 ;; Hardware stack levels required when called:    2
  7141 ;; This function calls:
  7142 ;;		_glcd_FillScreen
  7143 ;;		_glcd_WriteByte
  7144 ;; This function is called by:
  7145 ;;		_main
  7146 ;; This function uses a non-reentrant model
  7147 ;;
  7148                           
  7149                           	psect	text20
  7150  0018B4                     __ptext20:
  7151                           	opt callstack 0
  7152  0018B4                     _glcd_Init:
  7153                           	opt callstack 28
  7154                           
  7155                           ;incstack = 0
  7156                           ;glcd_Init@mode stored from wreg
  7157  0018B4  6E0E               	movwf	glcd_Init@mode^0,c
  7158  0018B6                     
  7159                           ;../V3.X/glcd.c: 13: void glcd_Init(unsigned char mode);../V3.X/glcd.c: 14: {;../V3.X/gl
      +                          cd.c: 17:  PORTD = 0x00;
  7160  0018B6  0E00               	movlw	0
  7161  0018B8  6E83               	movwf	131,c	;volatile
  7162  0018BA                     
  7163                           ;../V3.X/glcd.c: 18:  LATBbits.LATB5 = 0;
  7164  0018BA  9A8A               	bcf	138,5,c	;volatile
  7165  0018BC                     
  7166                           ;../V3.X/glcd.c: 19:  _delay((unsigned long)((50)*(8000000/4000000.0)));
  7167  0018BC  0E21               	movlw	33
  7168  0018BE                     u3457:
  7169  0018BE  2EE8               	decfsz	wreg,f,c
  7170  0018C0  D7FE               	bra	u3457
  7171  0018C2  F000               	nop	
  7172  0018C4                     
  7173                           ;../V3.X/glcd.c: 20:  LATBbits.LATB5 = 1;
  7174  0018C4  8A8A               	bsf	138,5,c	;volatile
  7175  0018C6                     
  7176                           ;../V3.X/glcd.c: 22:  LATBbits.LATB4=0;
  7177  0018C6  988A               	bcf	138,4,c	;volatile
  7178  0018C8                     
  7179                           ;../V3.X/glcd.c: 23:  LATBbits.LATB0=0;
  7180  0018C8  908A               	bcf	138,0,c	;volatile
  7181  0018CA                     
  7182                           ;../V3.X/glcd.c: 24:  LATBbits.LATB1=0;
  7183  0018CA  928A               	bcf	138,1,c	;volatile
  7184  0018CC                     
  7185                           ;../V3.X/glcd.c: 25:  LATBbits.LATB2=0;
  7186  0018CC  948A               	bcf	138,2,c	;volatile
  7187  0018CE                     
  7188                           ;../V3.X/glcd.c: 26:  _delay((unsigned long)((1)*(8000000/4000000.0)));
  7189  0018CE  F000 F000          	nop2		;2 cycle nop
  7190  0018D2                     
  7191                           ;../V3.X/glcd.c: 28:   glcd_WriteByte(0, 0xC0);
  7192  0018D2  0EC0               	movlw	192
  7193  0018D4  6E09               	movwf	glcd_WriteByte@data^0,c
  7194  0018D6  0E00               	movlw	0
  7195  0018D8  ECDF  F009         	call	_glcd_WriteByte
  7196  0018DC                     
  7197                           ;../V3.X/glcd.c: 29:    glcd_WriteByte(1, 0xC0);
  7198  0018DC  0EC0               	movlw	192
  7199  0018DE  6E09               	movwf	glcd_WriteByte@data^0,c
  7200  0018E0  0E01               	movlw	1
  7201  0018E2  ECDF  F009         	call	_glcd_WriteByte
  7202  0018E6                     
  7203                           ;../V3.X/glcd.c: 30:     glcd_WriteByte(0, 0x40);
  7204  0018E6  0E40               	movlw	64
  7205  0018E8  6E09               	movwf	glcd_WriteByte@data^0,c
  7206  0018EA  0E00               	movlw	0
  7207  0018EC  ECDF  F009         	call	_glcd_WriteByte
  7208  0018F0                     
  7209                           ;../V3.X/glcd.c: 31:     glcd_WriteByte(1, 0x40);
  7210  0018F0  0E40               	movlw	64
  7211  0018F2  6E09               	movwf	glcd_WriteByte@data^0,c
  7212  0018F4  0E01               	movlw	1
  7213  0018F6  ECDF  F009         	call	_glcd_WriteByte
  7214  0018FA                     
  7215                           ;../V3.X/glcd.c: 32:     glcd_WriteByte(0, 0xB8);
  7216  0018FA  0EB8               	movlw	184
  7217  0018FC  6E09               	movwf	glcd_WriteByte@data^0,c
  7218  0018FE  0E00               	movlw	0
  7219  001900  ECDF  F009         	call	_glcd_WriteByte
  7220  001904                     
  7221                           ;../V3.X/glcd.c: 33:     glcd_WriteByte(1, 0xB8);
  7222  001904  0EB8               	movlw	184
  7223  001906  6E09               	movwf	glcd_WriteByte@data^0,c
  7224  001908  0E01               	movlw	1
  7225  00190A  ECDF  F009         	call	_glcd_WriteByte
  7226  00190E                     
  7227                           ;../V3.X/glcd.c: 35:  if(mode == 1)
  7228  00190E  040E               	decf	glcd_Init@mode^0,w,c
  7229  001910  A4D8               	btfss	status,2,c
  7230  001912  EF8D  F00C         	goto	u1981
  7231  001916  EF8F  F00C         	goto	u1980
  7232  00191A                     u1981:
  7233  00191A  EF9B  F00C         	goto	l3261
  7234  00191E                     u1980:
  7235  00191E                     
  7236                           ;../V3.X/glcd.c: 36:   {;../V3.X/glcd.c: 37:       glcd_WriteByte(0, 0x3F);
  7237  00191E  0E3F               	movlw	63
  7238  001920  6E09               	movwf	glcd_WriteByte@data^0,c
  7239  001922  0E00               	movlw	0
  7240  001924  ECDF  F009         	call	_glcd_WriteByte
  7241                           
  7242                           ;../V3.X/glcd.c: 38:       glcd_WriteByte(1, 0x3F);
  7243  001928  0E3F               	movlw	63
  7244  00192A  6E09               	movwf	glcd_WriteByte@data^0,c
  7245  00192C  0E01               	movlw	1
  7246  00192E  ECDF  F009         	call	_glcd_WriteByte
  7247                           
  7248                           ;../V3.X/glcd.c: 39:   }
  7249  001932  EFA5  F00C         	goto	l3263
  7250  001936                     l3261:
  7251                           
  7252                           ;../V3.X/glcd.c: 41:   {;../V3.X/glcd.c: 42:       glcd_WriteByte(0, 0x3E);
  7253  001936  0E3E               	movlw	62
  7254  001938  6E09               	movwf	glcd_WriteByte@data^0,c
  7255  00193A  0E00               	movlw	0
  7256  00193C  ECDF  F009         	call	_glcd_WriteByte
  7257                           
  7258                           ;../V3.X/glcd.c: 43:       glcd_WriteByte(1, 0x3E);
  7259  001940  0E3E               	movlw	62
  7260  001942  6E09               	movwf	glcd_WriteByte@data^0,c
  7261  001944  0E01               	movlw	1
  7262  001946  ECDF  F009         	call	_glcd_WriteByte
  7263  00194A                     l3263:
  7264                           
  7265                           ;../V3.X/glcd.c: 46:  glcd_FillScreen(0);
  7266  00194A  0E00               	movlw	0
  7267  00194C  EC88  F00B         	call	_glcd_FillScreen
  7268  001950  0012               	return		;funcret
  7269  001952                     __end_of_glcd_Init:
  7270                           	opt callstack 0
  7271                           
  7272 ;; *************** function _glcd_FillScreen *****************
  7273 ;; Defined at:
  7274 ;;		line 87 in file "../V3.X/glcd.c"
  7275 ;; Parameters:    Size  Location     Type
  7276 ;;  color           1    wreg     unsigned char 
  7277 ;; Auto vars:     Size  Location     Type
  7278 ;;  color           1   10[COMRAM] unsigned char 
  7279 ;;  i               1   12[COMRAM] unsigned char 
  7280 ;;  j               1   11[COMRAM] unsigned char 
  7281 ;; Return value:  Size  Location     Type
  7282 ;;                  1    wreg      void 
  7283 ;; Registers used:
  7284 ;;		wreg, status,2, status,0, prodl, prodh, cstack
  7285 ;; Tracked objects:
  7286 ;;		On entry : 0/0
  7287 ;;		On exit  : 0/0
  7288 ;;		Unchanged: 0/0
  7289 ;; Data sizes:     COMRAM   BANK0   BANK1   BANK4
  7290 ;;      Params:         0       0       0       0
  7291 ;;      Locals:         3       0       0       0
  7292 ;;      Temps:          0       0       0       0
  7293 ;;      Totals:         3       0       0       0
  7294 ;;Total ram usage:        3 bytes
  7295 ;; Hardware stack levels used:    1
  7296 ;; Hardware stack levels required when called:    1
  7297 ;; This function calls:
  7298 ;;		_glcd_WriteByte
  7299 ;; This function is called by:
  7300 ;;		_menu
  7301 ;;		_affMenu
  7302 ;;		_menuTetris
  7303 ;;		_glcd_Init
  7304 ;; This function uses a non-reentrant model
  7305 ;;
  7306                           
  7307                           	psect	text21
  7308  001710                     __ptext21:
  7309                           	opt callstack 0
  7310  001710                     _glcd_FillScreen:
  7311                           	opt callstack 27
  7312                           
  7313                           ;incstack = 0
  7314                           ;glcd_FillScreen@color stored from wreg
  7315  001710  6E0B               	movwf	glcd_FillScreen@color^0,c
  7316  001712                     
  7317                           ;../V3.X/glcd.c: 87: void glcd_FillScreen(unsigned char color);../V3.X/glcd.c: 88: {;../
      +                          V3.X/glcd.c: 89: unsigned char i, j;;../V3.X/glcd.c: 91:  for(i = 0; i < 8; i ++)
  7318  001712  0E00               	movlw	0
  7319  001714  6E0D               	movwf	glcd_FillScreen@i^0,c
  7320  001716                     l295:
  7321                           
  7322                           ;../V3.X/glcd.c: 92:  {;../V3.X/glcd.c: 93:   LATBbits.LATB2=0;
  7323  001716  948A               	bcf	138,2,c	;volatile
  7324  001718                     
  7325                           ;../V3.X/glcd.c: 94:        glcd_WriteByte(0, 0b01000000);
  7326  001718  0E40               	movlw	64
  7327  00171A  6E09               	movwf	glcd_WriteByte@data^0,c
  7328  00171C  0E00               	movlw	0
  7329  00171E  ECDF  F009         	call	_glcd_WriteByte
  7330                           
  7331                           ;../V3.X/glcd.c: 95:        glcd_WriteByte(1, 0b01000000);
  7332  001722  0E40               	movlw	64
  7333  001724  6E09               	movwf	glcd_WriteByte@data^0,c
  7334  001726  0E01               	movlw	1
  7335  001728  ECDF  F009         	call	_glcd_WriteByte
  7336  00172C                     
  7337                           ;../V3.X/glcd.c: 96:        glcd_WriteByte(0, i | 0b10111000);
  7338  00172C  500D               	movf	glcd_FillScreen@i^0,w,c
  7339  00172E  09B8               	iorlw	184
  7340  001730  6E09               	movwf	glcd_WriteByte@data^0,c
  7341  001732  0E00               	movlw	0
  7342  001734  ECDF  F009         	call	_glcd_WriteByte
  7343  001738                     
  7344                           ;../V3.X/glcd.c: 97:        glcd_WriteByte(1, i | 0b10111000);
  7345  001738  500D               	movf	glcd_FillScreen@i^0,w,c
  7346  00173A  09B8               	iorlw	184
  7347  00173C  6E09               	movwf	glcd_WriteByte@data^0,c
  7348  00173E  0E01               	movlw	1
  7349  001740  ECDF  F009         	call	_glcd_WriteByte
  7350  001744                     
  7351                           ;../V3.X/glcd.c: 98:        LATBbits.LATB2=1;
  7352  001744  848A               	bsf	138,2,c	;volatile
  7353  001746                     
  7354                           ;../V3.X/glcd.c: 100:    for(j = 0; j < 64; j++)
  7355  001746  0E00               	movlw	0
  7356  001748  6E0C               	movwf	glcd_FillScreen@j^0,c
  7357  00174A                     l2849:
  7358                           
  7359                           ;../V3.X/glcd.c: 101:    {;../V3.X/glcd.c: 102:     glcd_WriteByte(0, 0xFF*color);
  7360  00174A  500B               	movf	glcd_FillScreen@color^0,w,c
  7361  00174C  0D01               	mullw	1
  7362  00174E  50F3               	movf	243,w,c
  7363  001750  0800               	sublw	0
  7364  001752  6E09               	movwf	glcd_WriteByte@data^0,c
  7365  001754  0E00               	movlw	0
  7366  001756  ECDF  F009         	call	_glcd_WriteByte
  7367                           
  7368                           ;../V3.X/glcd.c: 103:            glcd_WriteByte(1, 0xFF*color);
  7369  00175A  500B               	movf	glcd_FillScreen@color^0,w,c
  7370  00175C  0D01               	mullw	1
  7371  00175E  50F3               	movf	243,w,c
  7372  001760  0800               	sublw	0
  7373  001762  6E09               	movwf	glcd_WriteByte@data^0,c
  7374  001764  0E01               	movlw	1
  7375  001766  ECDF  F009         	call	_glcd_WriteByte
  7376  00176A                     
  7377                           ;../V3.X/glcd.c: 104:    }
  7378  00176A  2A0C               	incf	glcd_FillScreen@j^0,f,c
  7379  00176C  0E3F               	movlw	63
  7380  00176E  640C               	cpfsgt	glcd_FillScreen@j^0,c
  7381  001770  EFBC  F00B         	goto	u1921
  7382  001774  EFBE  F00B         	goto	u1920
  7383  001778                     u1921:
  7384  001778  EFA5  F00B         	goto	l2849
  7385  00177C                     u1920:
  7386  00177C                     
  7387                           ;../V3.X/glcd.c: 106:  }
  7388  00177C  2A0D               	incf	glcd_FillScreen@i^0,f,c
  7389  00177E  0E07               	movlw	7
  7390  001780  640D               	cpfsgt	glcd_FillScreen@i^0,c
  7391  001782  EFC5  F00B         	goto	u1931
  7392  001786  EFC7  F00B         	goto	u1930
  7393  00178A                     u1931:
  7394  00178A  EF8B  F00B         	goto	l295
  7395  00178E                     u1930:
  7396  00178E  0012               	return		;funcret
  7397  001790                     __end_of_glcd_FillScreen:
  7398                           	opt callstack 0
  7399                           
  7400 ;; *************** function _glcd_WriteByte *****************
  7401 ;; Defined at:
  7402 ;;		line 53 in file "../V3.X/glcd.c"
  7403 ;; Parameters:    Size  Location     Type
  7404 ;;  side            1    wreg     unsigned char 
  7405 ;;  data            1    8[COMRAM] unsigned char 
  7406 ;; Auto vars:     Size  Location     Type
  7407 ;;  side            1    9[COMRAM] unsigned char 
  7408 ;; Return value:  Size  Location     Type
  7409 ;;                  1    wreg      void 
  7410 ;; Registers used:
  7411 ;;		wreg, status,2
  7412 ;; Tracked objects:
  7413 ;;		On entry : 0/0
  7414 ;;		On exit  : 0/0
  7415 ;;		Unchanged: 0/0
  7416 ;; Data sizes:     COMRAM   BANK0   BANK1   BANK4
  7417 ;;      Params:         1       0       0       0
  7418 ;;      Locals:         1       0       0       0
  7419 ;;      Temps:          0       0       0       0
  7420 ;;      Totals:         2       0       0       0
  7421 ;;Total ram usage:        2 bytes
  7422 ;; Hardware stack levels used:    1
  7423 ;; This function calls:
  7424 ;;		Nothing
  7425 ;; This function is called by:
  7426 ;;		_glcd_Init
  7427 ;;		_glcd_FillScreen
  7428 ;;		_glcd_PlotPixel
  7429 ;;		_glcd_SetCursor
  7430 ;; This function uses a non-reentrant model
  7431 ;;
  7432                           
  7433                           	psect	text22
  7434  0013BE                     __ptext22:
  7435                           	opt callstack 0
  7436  0013BE                     _glcd_WriteByte:
  7437                           	opt callstack 25
  7438                           
  7439                           ;incstack = 0
  7440                           ;glcd_WriteByte@side stored from wreg
  7441  0013BE  6E0A               	movwf	glcd_WriteByte@side^0,c
  7442  0013C0                     
  7443                           ;../V3.X/glcd.c: 53: void glcd_WriteByte(unsigned char side, unsigned char data);../V3.X
      +                          /glcd.c: 54: {;../V3.X/glcd.c: 55:  if(side)
  7444  0013C0  500A               	movf	glcd_WriteByte@side^0,w,c
  7445  0013C2  B4D8               	btfsc	status,2,c
  7446  0013C4  EFE6  F009         	goto	u1721
  7447  0013C8  EFE8  F009         	goto	u1720
  7448  0013CC                     u1721:
  7449  0013CC  EFEC  F009         	goto	l290
  7450  0013D0                     u1720:
  7451  0013D0                     
  7452                           ;../V3.X/glcd.c: 56:  {;../V3.X/glcd.c: 57:       LATBbits.LATB0 = 1;
  7453  0013D0  808A               	bsf	138,0,c	;volatile
  7454                           
  7455                           ;../V3.X/glcd.c: 58:   LATBbits.LATB1 = 0;
  7456  0013D2  928A               	bcf	138,1,c	;volatile
  7457                           
  7458                           ;../V3.X/glcd.c: 59:  }
  7459  0013D4  EFEE  F009         	goto	l2701
  7460  0013D8                     l290:
  7461                           
  7462                           ;../V3.X/glcd.c: 61:  {;../V3.X/glcd.c: 62:   LATBbits.LATB1 = 0;
  7463  0013D8  928A               	bcf	138,1,c	;volatile
  7464                           
  7465                           ;../V3.X/glcd.c: 63:        LATBbits.LATB1 = 1;
  7466  0013DA  828A               	bsf	138,1,c	;volatile
  7467  0013DC                     l2701:
  7468                           
  7469                           ;../V3.X/glcd.c: 66:  TRISD=0;
  7470  0013DC  0E00               	movlw	0
  7471  0013DE  6E95               	movwf	149,c	;volatile
  7472  0013E0                     
  7473                           ;../V3.X/glcd.c: 67:  LATBbits.LATB3=0;
  7474  0013E0  968A               	bcf	138,3,c	;volatile
  7475  0013E2                     
  7476                           ;../V3.X/glcd.c: 69:  LATD = data;
  7477  0013E2  C009  FF8C         	movff	glcd_WriteByte@data,3980	;volatile
  7478  0013E6                     
  7479                           ;../V3.X/glcd.c: 73:  LATBbits.LATB4 = 1;
  7480  0013E6  888A               	bsf	138,4,c	;volatile
  7481  0013E8                     
  7482                           ;../V3.X/glcd.c: 74:  _delay((unsigned long)((1)*(8000000/4000000.0)));
  7483  0013E8  F000 F000          	nop2		;2 cycle nop
  7484  0013EC                     
  7485                           ;../V3.X/glcd.c: 75:  LATBbits.LATB4 = 0;
  7486  0013EC  988A               	bcf	138,4,c	;volatile
  7487  0013EE                     
  7488                           ;../V3.X/glcd.c: 76:  _delay((unsigned long)((1)*(8000000/4000000.0)));
  7489  0013EE  F000 F000          	nop2		;2 cycle nop
  7490  0013F2                     
  7491                           ;../V3.X/glcd.c: 79:  LATBbits.LATB0 = 0;
  7492  0013F2  908A               	bcf	138,0,c	;volatile
  7493  0013F4                     
  7494                           ;../V3.X/glcd.c: 80:  LATBbits.LATB1 = 0;
  7495  0013F4  928A               	bcf	138,1,c	;volatile
  7496  0013F6  0012               	return		;funcret
  7497  0013F8                     __end_of_glcd_WriteByte:
  7498                           	opt callstack 0
  7499                           
  7500 ;; *************** function _eraseLine *****************
  7501 ;; Defined at:
  7502 ;;		line 32 in file "../V3.X/collisions.c"
  7503 ;; Parameters:    Size  Location     Type
  7504 ;;  tab             2    6[COMRAM] PTR unsigned char [10]
  7505 ;;		 -> main@tab(220), 
  7506 ;;  line            2    8[COMRAM] unsigned short 
  7507 ;;  points          2   10[COMRAM] unsigned short 
  7508 ;; Auto vars:     Size  Location     Type
  7509 ;;  j               2   20[COMRAM] unsigned short 
  7510 ;;  j               2   16[COMRAM] unsigned short 
  7511 ;;  i               2   18[COMRAM] unsigned short 
  7512 ;; Return value:  Size  Location     Type
  7513 ;;                  1    wreg      void 
  7514 ;; Registers used:
  7515 ;;		wreg, fsr1l, fsr1h, fsr2l, fsr2h, status,2, status,0, prodl, prodh, cstack
  7516 ;; Tracked objects:
  7517 ;;		On entry : 0/0
  7518 ;;		On exit  : 0/0
  7519 ;;		Unchanged: 0/0
  7520 ;; Data sizes:     COMRAM   BANK0   BANK1   BANK4
  7521 ;;      Params:         6       0       0       0
  7522 ;;      Locals:         6       0       0       0
  7523 ;;      Temps:          4       0       0       0
  7524 ;;      Totals:        16       0       0       0
  7525 ;;Total ram usage:       16 bytes
  7526 ;; Hardware stack levels used:    1
  7527 ;; Hardware stack levels required when called:    1
  7528 ;; This function calls:
  7529 ;;		___wmul
  7530 ;; This function is called by:
  7531 ;;		_main
  7532 ;; This function uses a non-reentrant model
  7533 ;;
  7534                           
  7535                           	psect	text23
  7536  001E92                     __ptext23:
  7537                           	opt callstack 0
  7538  001E92                     _eraseLine:
  7539                           	opt callstack 29
  7540  001E92                     
  7541                           ;../V3.X/collisions.c: 33:  for(unsigned short i = line; i > 0; i--){
  7542  001E92  C009  F013         	movff	eraseLine@line,eraseLine@i
  7543  001E96  C00A  F014         	movff	eraseLine@line+1,eraseLine@i+1
  7544  001E9A                     l3785:
  7545  001E9A  5013               	movf	eraseLine@i^0,w,c
  7546  001E9C  1014               	iorwf	(eraseLine@i+1)^0,w,c
  7547  001E9E  A4D8               	btfss	status,2,c
  7548  001EA0  EF54  F00F         	goto	u2701
  7549  001EA4  EF56  F00F         	goto	u2700
  7550  001EA8                     u2701:
  7551  001EA8  EF58  F00F         	goto	l3789
  7552  001EAC                     u2700:
  7553  001EAC  EFA4  F00F         	goto	l3805
  7554  001EB0                     l3789:
  7555                           
  7556                           ;../V3.X/collisions.c: 34:   for(unsigned short j = 0; j < 10; j++){
  7557  001EB0  0E00               	movlw	0
  7558  001EB2  6E16               	movwf	(eraseLine@j+1)^0,c
  7559  001EB4  0E00               	movlw	0
  7560  001EB6  6E15               	movwf	eraseLine@j^0,c
  7561  001EB8                     l3795:
  7562                           
  7563                           ;../V3.X/collisions.c: 35:    tab[i][j] = tab[i-1][j];
  7564  001EB8  C013  F001         	movff	eraseLine@i,___wmul@multiplier
  7565  001EBC  C014  F002         	movff	eraseLine@i+1,___wmul@multiplier+1
  7566  001EC0  0E00               	movlw	0
  7567  001EC2  6E04               	movwf	(___wmul@multiplicand+1)^0,c
  7568  001EC4  0E0A               	movlw	10
  7569  001EC6  6E03               	movwf	___wmul@multiplicand^0,c
  7570  001EC8  EC83  F009         	call	___wmul	;wreg free
  7571  001ECC  C007  F00D         	movff	eraseLine@tab,??_eraseLine
  7572  001ED0  C008  F00E         	movff	eraseLine@tab+1,??_eraseLine+1
  7573  001ED4  5001               	movf	?___wmul^0,w,c
  7574  001ED6  260D               	addwf	??_eraseLine^0,f,c
  7575  001ED8  5002               	movf	(?___wmul+1)^0,w,c
  7576  001EDA  220E               	addwfc	(??_eraseLine+1)^0,f,c
  7577  001EDC  5015               	movf	eraseLine@j^0,w,c
  7578  001EDE  260D               	addwf	??_eraseLine^0,f,c
  7579  001EE0  5016               	movf	(eraseLine@j+1)^0,w,c
  7580  001EE2  220E               	addwfc	(??_eraseLine+1)^0,f,c
  7581  001EE4  0EF6               	movlw	246
  7582  001EE6  240D               	addwf	??_eraseLine^0,w,c
  7583  001EE8  6ED9               	movwf	fsr2l,c
  7584  001EEA  0EFF               	movlw	255
  7585  001EEC  200E               	addwfc	(??_eraseLine+1)^0,w,c
  7586  001EEE  6EDA               	movwf	fsr2h,c
  7587  001EF0  C013  F001         	movff	eraseLine@i,___wmul@multiplier
  7588  001EF4  C014  F002         	movff	eraseLine@i+1,___wmul@multiplier+1
  7589  001EF8  0E00               	movlw	0
  7590  001EFA  6E04               	movwf	(___wmul@multiplicand+1)^0,c
  7591  001EFC  0E0A               	movlw	10
  7592  001EFE  6E03               	movwf	___wmul@multiplicand^0,c
  7593  001F00  EC83  F009         	call	___wmul	;wreg free
  7594  001F04  C007  F00F         	movff	eraseLine@tab,??_eraseLine+2
  7595  001F08  C008  F010         	movff	eraseLine@tab+1,??_eraseLine+3
  7596  001F0C  5001               	movf	?___wmul^0,w,c
  7597  001F0E  260F               	addwf	(??_eraseLine+2)^0,f,c
  7598  001F10  5002               	movf	(?___wmul+1)^0,w,c
  7599  001F12  2210               	addwfc	(??_eraseLine+3)^0,f,c
  7600  001F14  5015               	movf	eraseLine@j^0,w,c
  7601  001F16  240F               	addwf	(??_eraseLine+2)^0,w,c
  7602  001F18  6EE1               	movwf	fsr1l,c
  7603  001F1A  5016               	movf	(eraseLine@j+1)^0,w,c
  7604  001F1C  2010               	addwfc	(??_eraseLine+3)^0,w,c
  7605  001F1E  6EE2               	movwf	fsr1h,c
  7606  001F20  CFDF FFE7          	movff	indf2,indf1
  7607  001F24                     
  7608                           ;../V3.X/collisions.c: 36:   }
  7609  001F24  4A15               	infsnz	eraseLine@j^0,f,c
  7610  001F26  2A16               	incf	(eraseLine@j+1)^0,f,c
  7611  001F28  5016               	movf	(eraseLine@j+1)^0,w,c
  7612  001F2A  E109               	bnz	u2710
  7613  001F2C  0E0A               	movlw	10
  7614  001F2E  5C15               	subwf	eraseLine@j^0,w,c
  7615  001F30  A0D8               	btfss	status,0,c
  7616  001F32  EF9D  F00F         	goto	u2711
  7617  001F36  EF9F  F00F         	goto	u2710
  7618  001F3A                     u2711:
  7619  001F3A  EF5C  F00F         	goto	l3795
  7620  001F3E                     u2710:
  7621  001F3E                     
  7622                           ;../V3.X/collisions.c: 37:  }
  7623  001F3E  0613               	decf	eraseLine@i^0,f,c
  7624  001F40  A0D8               	btfss	status,0,c
  7625  001F42  0614               	decf	(eraseLine@i+1)^0,f,c
  7626  001F44  EF4D  F00F         	goto	l3785
  7627  001F48                     l3805:
  7628                           
  7629                           ;../V3.X/collisions.c: 38:  for(unsigned short j = 0; j < 10; j++){
  7630  001F48  0E00               	movlw	0
  7631  001F4A  6E12               	movwf	(eraseLine@j_317+1)^0,c
  7632  001F4C  0E00               	movlw	0
  7633  001F4E  6E11               	movwf	eraseLine@j_317^0,c
  7634  001F50                     l3811:
  7635                           
  7636                           ;../V3.X/collisions.c: 39:    tab[0][j] = 0;
  7637  001F50  5011               	movf	eraseLine@j_317^0,w,c
  7638  001F52  2407               	addwf	eraseLine@tab^0,w,c
  7639  001F54  6ED9               	movwf	fsr2l,c
  7640  001F56  5012               	movf	(eraseLine@j_317+1)^0,w,c
  7641  001F58  2008               	addwfc	(eraseLine@tab+1)^0,w,c
  7642  001F5A  6EDA               	movwf	fsr2h,c
  7643  001F5C  0E00               	movlw	0
  7644  001F5E  6EDF               	movwf	indf2,c
  7645  001F60                     
  7646                           ;../V3.X/collisions.c: 40:   }
  7647  001F60  4A11               	infsnz	eraseLine@j_317^0,f,c
  7648  001F62  2A12               	incf	(eraseLine@j_317+1)^0,f,c
  7649  001F64  5012               	movf	(eraseLine@j_317+1)^0,w,c
  7650  001F66  E109               	bnz	u2720
  7651  001F68  0E0A               	movlw	10
  7652  001F6A  5C11               	subwf	eraseLine@j_317^0,w,c
  7653  001F6C  A0D8               	btfss	status,0,c
  7654  001F6E  EFBB  F00F         	goto	u2721
  7655  001F72  EFBD  F00F         	goto	u2720
  7656  001F76                     u2721:
  7657  001F76  EFA8  F00F         	goto	l3811
  7658  001F7A                     u2720:
  7659  001F7A                     
  7660                           ;../V3.X/collisions.c: 41:     points += 1;
  7661  001F7A  4A0B               	infsnz	eraseLine@points^0,f,c
  7662  001F7C  2A0C               	incf	(eraseLine@points+1)^0,f,c
  7663  001F7E  0012               	return		;funcret
  7664  001F80                     __end_of_eraseLine:
  7665                           	opt callstack 0
  7666                           
  7667 ;; *************** function _checkLine *****************
  7668 ;; Defined at:
  7669 ;;		line 20 in file "../V3.X/collisions.c"
  7670 ;; Parameters:    Size  Location     Type
  7671 ;;  tab             2    6[COMRAM] PTR unsigned char [10]
  7672 ;;		 -> main@tab(220), 
  7673 ;;  line            2    8[COMRAM] unsigned short 
  7674 ;; Auto vars:     Size  Location     Type
  7675 ;;  i               2   15[COMRAM] unsigned short 
  7676 ;;  nbTrue          2   13[COMRAM] unsigned short 
  7677 ;; Return value:  Size  Location     Type
  7678 ;;                  2    6[COMRAM] unsigned short 
  7679 ;; Registers used:
  7680 ;;		wreg, fsr2l, fsr2h, status,2, status,0, prodl, prodh, cstack
  7681 ;; Tracked objects:
  7682 ;;		On entry : 0/0
  7683 ;;		On exit  : 0/0
  7684 ;;		Unchanged: 0/0
  7685 ;; Data sizes:     COMRAM   BANK0   BANK1   BANK4
  7686 ;;      Params:         4       0       0       0
  7687 ;;      Locals:         4       0       0       0
  7688 ;;      Temps:          3       0       0       0
  7689 ;;      Totals:        11       0       0       0
  7690 ;;Total ram usage:       11 bytes
  7691 ;; Hardware stack levels used:    1
  7692 ;; Hardware stack levels required when called:    1
  7693 ;; This function calls:
  7694 ;;		___wmul
  7695 ;; This function is called by:
  7696 ;;		_main
  7697 ;; This function uses a non-reentrant model
  7698 ;;
  7699                           
  7700                           	psect	text24
  7701  00181C                     __ptext24:
  7702                           	opt callstack 0
  7703  00181C                     _checkLine:
  7704                           	opt callstack 29
  7705  00181C                     
  7706                           ;../V3.X/collisions.c: 21:  unsigned short nbTrue = 0;
  7707  00181C  0E00               	movlw	0
  7708  00181E  6E0F               	movwf	(checkLine@nbTrue+1)^0,c
  7709  001820  0E00               	movlw	0
  7710  001822  6E0E               	movwf	checkLine@nbTrue^0,c
  7711                           
  7712                           ;../V3.X/collisions.c: 22:  for(unsigned short i = 0; i < 10; i++){
  7713  001824  0E00               	movlw	0
  7714  001826  6E11               	movwf	(checkLine@i+1)^0,c
  7715  001828  0E00               	movlw	0
  7716  00182A  6E10               	movwf	checkLine@i^0,c
  7717  00182C                     l3765:
  7718                           
  7719                           ;../V3.X/collisions.c: 23:   if(tab[line][i] == 1)
  7720  00182C  C009  F001         	movff	checkLine@line,___wmul@multiplier
  7721  001830  C00A  F002         	movff	checkLine@line+1,___wmul@multiplier+1
  7722  001834  0E00               	movlw	0
  7723  001836  6E04               	movwf	(___wmul@multiplicand+1)^0,c
  7724  001838  0E0A               	movlw	10
  7725  00183A  6E03               	movwf	___wmul@multiplicand^0,c
  7726  00183C  EC83  F009         	call	___wmul	;wreg free
  7727  001840  C007  F00B         	movff	checkLine@tab,??_checkLine
  7728  001844  C008  F00C         	movff	checkLine@tab+1,??_checkLine+1
  7729  001848  5001               	movf	?___wmul^0,w,c
  7730  00184A  260B               	addwf	??_checkLine^0,f,c
  7731  00184C  5002               	movf	(?___wmul+1)^0,w,c
  7732  00184E  220C               	addwfc	(??_checkLine+1)^0,f,c
  7733  001850  5010               	movf	checkLine@i^0,w,c
  7734  001852  240B               	addwf	??_checkLine^0,w,c
  7735  001854  6ED9               	movwf	fsr2l,c
  7736  001856  5011               	movf	(checkLine@i+1)^0,w,c
  7737  001858  200C               	addwfc	(??_checkLine+1)^0,w,c
  7738  00185A  6EDA               	movwf	fsr2h,c
  7739  00185C  04DE               	decf	postinc2,w,c
  7740  00185E  A4D8               	btfss	status,2,c
  7741  001860  EF34  F00C         	goto	u2671
  7742  001864  EF36  F00C         	goto	u2670
  7743  001868                     u2671:
  7744  001868  EF38  F00C         	goto	l142
  7745  00186C                     u2670:
  7746  00186C                     
  7747                           ;../V3.X/collisions.c: 24:    nbTrue++;
  7748  00186C  4A0E               	infsnz	checkLine@nbTrue^0,f,c
  7749  00186E  2A0F               	incf	(checkLine@nbTrue+1)^0,f,c
  7750  001870                     l142:
  7751                           
  7752                           ;../V3.X/collisions.c: 25:  }
  7753  001870  4A10               	infsnz	checkLine@i^0,f,c
  7754  001872  2A11               	incf	(checkLine@i+1)^0,f,c
  7755  001874  5011               	movf	(checkLine@i+1)^0,w,c
  7756  001876  E109               	bnz	u2680
  7757  001878  0E0A               	movlw	10
  7758  00187A  5C10               	subwf	checkLine@i^0,w,c
  7759  00187C  A0D8               	btfss	status,0,c
  7760  00187E  EF43  F00C         	goto	u2681
  7761  001882  EF45  F00C         	goto	u2680
  7762  001886                     u2681:
  7763  001886  EF16  F00C         	goto	l3765
  7764  00188A                     u2680:
  7765  00188A                     
  7766                           ;../V3.X/collisions.c: 26:  if(nbTrue == 10)
  7767  00188A  0E0A               	movlw	10
  7768  00188C  180E               	xorwf	checkLine@nbTrue^0,w,c
  7769  00188E  100F               	iorwf	(checkLine@nbTrue+1)^0,w,c
  7770  001890  A4D8               	btfss	status,2,c
  7771  001892  EF4D  F00C         	goto	u2691
  7772  001896  EF4F  F00C         	goto	u2690
  7773  00189A                     u2691:
  7774  00189A  EF55  F00C         	goto	l3779
  7775  00189E                     u2690:
  7776  00189E                     
  7777                           ;../V3.X/collisions.c: 27:   return 1;
  7778  00189E  0E00               	movlw	0
  7779  0018A0  6E08               	movwf	(?_checkLine+1)^0,c
  7780  0018A2  0E01               	movlw	1
  7781  0018A4  6E07               	movwf	?_checkLine^0,c
  7782  0018A6  EF59  F00C         	goto	l144
  7783  0018AA                     l3779:
  7784                           
  7785                           ;../V3.X/collisions.c: 29:   return 0;
  7786  0018AA  0E00               	movlw	0
  7787  0018AC  6E08               	movwf	(?_checkLine+1)^0,c
  7788  0018AE  0E00               	movlw	0
  7789  0018B0  6E07               	movwf	?_checkLine^0,c
  7790  0018B2                     l144:
  7791  0018B2  0012               	return		;funcret
  7792  0018B4                     __end_of_checkLine:
  7793                           	opt callstack 0
  7794                           
  7795 ;; *************** function ___wmul *****************
  7796 ;; Defined at:
  7797 ;;		line 15 in file "C:\Program Files (x86)\Microchip\xc8\v2.10\pic\sources\c99\common\Umul16.c"
  7798 ;; Parameters:    Size  Location     Type
  7799 ;;  multiplier      2    0[COMRAM] unsigned int 
  7800 ;;  multiplicand    2    2[COMRAM] unsigned int 
  7801 ;; Auto vars:     Size  Location     Type
  7802 ;;  product         2    4[COMRAM] unsigned int 
  7803 ;; Return value:  Size  Location     Type
  7804 ;;                  2    0[COMRAM] unsigned int 
  7805 ;; Registers used:
  7806 ;;		wreg, status,2, status,0, prodl, prodh
  7807 ;; Tracked objects:
  7808 ;;		On entry : 0/0
  7809 ;;		On exit  : 0/0
  7810 ;;		Unchanged: 0/0
  7811 ;; Data sizes:     COMRAM   BANK0   BANK1   BANK4
  7812 ;;      Params:         4       0       0       0
  7813 ;;      Locals:         2       0       0       0
  7814 ;;      Temps:          0       0       0       0
  7815 ;;      Totals:         6       0       0       0
  7816 ;;Total ram usage:        6 bytes
  7817 ;; Hardware stack levels used:    1
  7818 ;; This function calls:
  7819 ;;		Nothing
  7820 ;; This function is called by:
  7821 ;;		_main
  7822 ;;		_checkLine
  7823 ;;		_eraseLine
  7824 ;; This function uses a non-reentrant model
  7825 ;;
  7826                           
  7827                           	psect	text25
  7828  001306                     __ptext25:
  7829                           	opt callstack 0
  7830  001306                     ___wmul:
  7831                           	opt callstack 29
  7832  001306  5001               	movf	___wmul@multiplier^0,w,c
  7833  001308  0203               	mulwf	___wmul@multiplicand^0,c
  7834  00130A  CFF3 F005          	movff	prodl,___wmul@product
  7835  00130E  CFF4 F006          	movff	prodh,___wmul@product+1
  7836  001312  5001               	movf	___wmul@multiplier^0,w,c
  7837  001314  0204               	mulwf	(___wmul@multiplicand+1)^0,c
  7838  001316  50F3               	movf	243,w,c
  7839  001318  2606               	addwf	(___wmul@product+1)^0,f,c
  7840  00131A  5002               	movf	(___wmul@multiplier+1)^0,w,c
  7841  00131C  0203               	mulwf	___wmul@multiplicand^0,c
  7842  00131E  50F3               	movf	243,w,c
  7843  001320  2606               	addwf	(___wmul@product+1)^0,f,c
  7844  001322  C005  F001         	movff	___wmul@product,?___wmul
  7845  001326  C006  F002         	movff	___wmul@product+1,?___wmul+1
  7846  00132A  0012               	return		;funcret
  7847  00132C                     __end_of___wmul:
  7848                           	opt callstack 0
  7849                           
  7850 ;; *************** function _checkCollision *****************
  7851 ;; Defined at:
  7852 ;;		line 3 in file "../V3.X/collisions.c"
  7853 ;; Parameters:    Size  Location     Type
  7854 ;;  tab             2    0[COMRAM] PTR unsigned char [10]
  7855 ;;		 -> main@tab(220), 
  7856 ;;  forme           2    2[COMRAM] PTR unsigned char [2]
  7857 ;;		 -> main@forme(8), 
  7858 ;; Auto vars:     Size  Location     Type
  7859 ;;  i               2   15[COMRAM] unsigned short 
  7860 ;;  result          2   13[COMRAM] unsigned short 
  7861 ;; Return value:  Size  Location     Type
  7862 ;;                  2    0[COMRAM] unsigned short 
  7863 ;; Registers used:
  7864 ;;		wreg, fsr2l, fsr2h, status,2, status,0, prodl, prodh
  7865 ;; Tracked objects:
  7866 ;;		On entry : 0/0
  7867 ;;		On exit  : 0/0
  7868 ;;		Unchanged: 0/0
  7869 ;; Data sizes:     COMRAM   BANK0   BANK1   BANK4
  7870 ;;      Params:         4       0       0       0
  7871 ;;      Locals:         4       0       0       0
  7872 ;;      Temps:          9       0       0       0
  7873 ;;      Totals:        17       0       0       0
  7874 ;;Total ram usage:       17 bytes
  7875 ;; Hardware stack levels used:    1
  7876 ;; This function calls:
  7877 ;;		Nothing
  7878 ;; This function is called by:
  7879 ;;		_main
  7880 ;; This function uses a non-reentrant model
  7881 ;;
  7882                           
  7883                           	psect	text26
  7884  001F80                     __ptext26:
  7885                           	opt callstack 0
  7886  001F80                     _checkCollision:
  7887                           	opt callstack 30
  7888  001F80                     
  7889                           ;../V3.X/collisions.c: 4:  unsigned short result = 0;
  7890  001F80  0E00               	movlw	0
  7891  001F82  6E0F               	movwf	(checkCollision@result+1)^0,c
  7892  001F84  0E00               	movlw	0
  7893  001F86  6E0E               	movwf	checkCollision@result^0,c
  7894                           
  7895                           ;../V3.X/collisions.c: 5:  for(unsigned short i = 0; i < 4; i++){
  7896  001F88  0E00               	movlw	0
  7897  001F8A  6E11               	movwf	(checkCollision@i+1)^0,c
  7898  001F8C  0E00               	movlw	0
  7899  001F8E  6E10               	movwf	checkCollision@i^0,c
  7900  001F90                     l3737:
  7901                           
  7902                           ;../V3.X/collisions.c: 6:   if(tab[forme[i][0] + 1][forme[i][1]] == 1 || forme[i][0] + 1
      +                           == 22){
  7903  001F90  90D8               	bcf	status,0,c
  7904  001F92  3410               	rlcf	checkCollision@i^0,w,c
  7905  001F94  6ED9               	movwf	fsr2l,c
  7906  001F96  3411               	rlcf	(checkCollision@i+1)^0,w,c
  7907  001F98  6EDA               	movwf	fsr2h,c
  7908  001F9A  5003               	movf	checkCollision@forme^0,w,c
  7909  001F9C  26D9               	addwf	fsr2l,f,c
  7910  001F9E  5004               	movf	(checkCollision@forme+1)^0,w,c
  7911  001FA0  22DA               	addwfc	fsr2h,f,c
  7912  001FA2  50DF               	movf	indf2,w,c
  7913  001FA4  6E05               	movwf	??_checkCollision^0,c
  7914  001FA6  5005               	movf	??_checkCollision^0,w,c
  7915  001FA8  0D0A               	mullw	10
  7916  001FAA  C001  F006         	movff	checkCollision@tab,??_checkCollision+1
  7917  001FAE  C002  F007         	movff	checkCollision@tab+1,??_checkCollision+2
  7918  001FB2  50F3               	movf	243,w,c
  7919  001FB4  2606               	addwf	(??_checkCollision+1)^0,f,c
  7920  001FB6  50F4               	movf	244,w,c
  7921  001FB8  2207               	addwfc	(??_checkCollision+2)^0,f,c
  7922  001FBA  C010  F008         	movff	checkCollision@i,??_checkCollision+3
  7923  001FBE  C011  F009         	movff	checkCollision@i+1,??_checkCollision+4
  7924  001FC2  90D8               	bcf	status,0,c
  7925  001FC4  3608               	rlcf	(??_checkCollision+3)^0,f,c
  7926  001FC6  3609               	rlcf	(??_checkCollision+4)^0,f,c
  7927  001FC8  C003  F00A         	movff	checkCollision@forme,??_checkCollision+5
  7928  001FCC  C004  F00B         	movff	checkCollision@forme+1,??_checkCollision+6
  7929  001FD0  5008               	movf	(??_checkCollision+3)^0,w,c
  7930  001FD2  260A               	addwf	(??_checkCollision+5)^0,f,c
  7931  001FD4  5009               	movf	(??_checkCollision+4)^0,w,c
  7932  001FD6  220B               	addwfc	(??_checkCollision+6)^0,f,c
  7933  001FD8  0E01               	movlw	1
  7934  001FDA  240A               	addwf	(??_checkCollision+5)^0,w,c
  7935  001FDC  6ED9               	movwf	fsr2l,c
  7936  001FDE  0E00               	movlw	0
  7937  001FE0  200B               	addwfc	(??_checkCollision+6)^0,w,c
  7938  001FE2  6EDA               	movwf	fsr2h,c
  7939  001FE4  50DF               	movf	indf2,w,c
  7940  001FE6  6E0C               	movwf	(??_checkCollision+7)^0,c
  7941  001FE8  500C               	movf	(??_checkCollision+7)^0,w,c
  7942  001FEA  2606               	addwf	(??_checkCollision+1)^0,f,c
  7943  001FEC  0E00               	movlw	0
  7944  001FEE  2207               	addwfc	(??_checkCollision+2)^0,f,c
  7945  001FF0  0E0A               	movlw	10
  7946  001FF2  2406               	addwf	(??_checkCollision+1)^0,w,c
  7947  001FF4  6ED9               	movwf	fsr2l,c
  7948  001FF6  0E00               	movlw	0
  7949  001FF8  2007               	addwfc	(??_checkCollision+2)^0,w,c
  7950  001FFA  6EDA               	movwf	fsr2h,c
  7951  001FFC  04DE               	decf	postinc2,w,c
  7952  001FFE  B4D8               	btfsc	status,2,c
  7953  002000  EF04  F010         	goto	u2631
  7954  002004  EF06  F010         	goto	u2630
  7955  002008                     u2631:
  7956  002008  EF20  F010         	goto	l3741
  7957  00200C                     u2630:
  7958  00200C  90D8               	bcf	status,0,c
  7959  00200E  3410               	rlcf	checkCollision@i^0,w,c
  7960  002010  6ED9               	movwf	fsr2l,c
  7961  002012  3411               	rlcf	(checkCollision@i+1)^0,w,c
  7962  002014  6EDA               	movwf	fsr2h,c
  7963  002016  5003               	movf	checkCollision@forme^0,w,c
  7964  002018  26D9               	addwf	fsr2l,f,c
  7965  00201A  5004               	movf	(checkCollision@forme+1)^0,w,c
  7966  00201C  22DA               	addwfc	fsr2h,f,c
  7967  00201E  50DF               	movf	indf2,w,c
  7968  002020  6E05               	movwf	??_checkCollision^0,c
  7969  002022  6A06               	clrf	(??_checkCollision+1)^0,c
  7970  002024  0E01               	movlw	1
  7971  002026  2605               	addwf	??_checkCollision^0,f,c
  7972  002028  0E00               	movlw	0
  7973  00202A  2206               	addwfc	(??_checkCollision+1)^0,f,c
  7974  00202C  0E16               	movlw	22
  7975  00202E  1805               	xorwf	??_checkCollision^0,w,c
  7976  002030  1006               	iorwf	(??_checkCollision+1)^0,w,c
  7977  002032  A4D8               	btfss	status,2,c
  7978  002034  EF1E  F010         	goto	u2641
  7979  002038  EF20  F010         	goto	u2640
  7980  00203C                     u2641:
  7981  00203C  EF26  F010         	goto	l3743
  7982  002040                     u2640:
  7983  002040                     l3741:
  7984                           
  7985                           ;../V3.X/collisions.c: 7:    result = 1;
  7986  002040  0E00               	movlw	0
  7987  002042  6E0F               	movwf	(checkCollision@result+1)^0,c
  7988  002044  0E01               	movlw	1
  7989  002046  6E0E               	movwf	checkCollision@result^0,c
  7990                           
  7991                           ;../V3.X/collisions.c: 8:    break;
  7992  002048  EF33  F010         	goto	l128
  7993  00204C                     l3743:
  7994                           
  7995                           ;../V3.X/collisions.c: 10:  }
  7996  00204C  4A10               	infsnz	checkCollision@i^0,f,c
  7997  00204E  2A11               	incf	(checkCollision@i+1)^0,f,c
  7998  002050  5011               	movf	(checkCollision@i+1)^0,w,c
  7999  002052  E109               	bnz	u2650
  8000  002054  0E04               	movlw	4
  8001  002056  5C10               	subwf	checkCollision@i^0,w,c
  8002  002058  A0D8               	btfss	status,0,c
  8003  00205A  EF31  F010         	goto	u2651
  8004  00205E  EF33  F010         	goto	u2650
  8005  002062                     u2651:
  8006  002062  EFC8  F00F         	goto	l3737
  8007  002066                     u2650:
  8008  002066                     l128:
  8009                           
  8010                           ;../V3.X/collisions.c: 11:  return result;
  8011  002066  C00E  F001         	movff	checkCollision@result,?_checkCollision
  8012  00206A  C00F  F002         	movff	checkCollision@result+1,?_checkCollision+1
  8013  00206E  0012               	return		;funcret
  8014  002070                     __end_of_checkCollision:
  8015                           	opt callstack 0
  8016                           
  8017 ;; *************** function _changePos *****************
  8018 ;; Defined at:
  8019 ;;		line 126 in file "../V3.X/formes.c"
  8020 ;; Parameters:    Size  Location     Type
  8021 ;;  position        2    0[COMRAM] PTR unsigned short 
  8022 ;;		 -> main@position(2), 
  8023 ;; Auto vars:     Size  Location     Type
  8024 ;;		None
  8025 ;; Return value:  Size  Location     Type
  8026 ;;                  1    wreg      void 
  8027 ;; Registers used:
  8028 ;;		wreg, fsr2l, fsr2h, status,2, status,0
  8029 ;; Tracked objects:
  8030 ;;		On entry : 0/0
  8031 ;;		On exit  : 0/0
  8032 ;;		Unchanged: 0/0
  8033 ;; Data sizes:     COMRAM   BANK0   BANK1   BANK4
  8034 ;;      Params:         2       0       0       0
  8035 ;;      Locals:         0       0       0       0
  8036 ;;      Temps:          2       0       0       0
  8037 ;;      Totals:         4       0       0       0
  8038 ;;Total ram usage:        4 bytes
  8039 ;; Hardware stack levels used:    1
  8040 ;; This function calls:
  8041 ;;		Nothing
  8042 ;; This function is called by:
  8043 ;;		_main
  8044 ;; This function uses a non-reentrant model
  8045 ;;
  8046                           
  8047                           	psect	text27
  8048  00138C                     __ptext27:
  8049                           	opt callstack 0
  8050  00138C                     _changePos:
  8051                           	opt callstack 30
  8052  00138C                     
  8053                           ;../V3.X/formes.c: 127:  *position = (((*position)+1) % 4);
  8054  00138C  C001  FFD9         	movff	changePos@position,fsr2l
  8055  001390  C002  FFDA         	movff	changePos@position+1,fsr2h
  8056  001394  CFDE F003          	movff	postinc2,??_changePos
  8057  001398  CFDD F004          	movff	postdec2,??_changePos+1
  8058  00139C  0E01               	movlw	1
  8059  00139E  2603               	addwf	??_changePos^0,f,c
  8060  0013A0  0E00               	movlw	0
  8061  0013A2  2204               	addwfc	(??_changePos+1)^0,f,c
  8062  0013A4  0E03               	movlw	3
  8063  0013A6  1603               	andwf	??_changePos^0,f,c
  8064  0013A8  0E00               	movlw	0
  8065  0013AA  1604               	andwf	(??_changePos+1)^0,f,c
  8066  0013AC  C001  FFD9         	movff	changePos@position,fsr2l
  8067  0013B0  C002  FFDA         	movff	changePos@position+1,fsr2h
  8068  0013B4  C003  FFDE         	movff	??_changePos,postinc2
  8069  0013B8  C004  FFDD         	movff	??_changePos+1,postdec2
  8070  0013BC  0012               	return		;funcret
  8071  0013BE                     __end_of_changePos:
  8072                           	opt callstack 0
  8073                           
  8074 ;; *************** function ___lwmod *****************
  8075 ;; Defined at:
  8076 ;;		line 7 in file "C:\Program Files (x86)\Microchip\xc8\v2.10\pic\sources\c99\common\lwmod.c"
  8077 ;; Parameters:    Size  Location     Type
  8078 ;;  dividend        2    0[COMRAM] unsigned int 
  8079 ;;  divisor         2    2[COMRAM] unsigned int 
  8080 ;; Auto vars:     Size  Location     Type
  8081 ;;  counter         1    4[COMRAM] unsigned char 
  8082 ;; Return value:  Size  Location     Type
  8083 ;;                  2    0[COMRAM] unsigned int 
  8084 ;; Registers used:
  8085 ;;		wreg, status,2, status,0
  8086 ;; Tracked objects:
  8087 ;;		On entry : 0/0
  8088 ;;		On exit  : 0/0
  8089 ;;		Unchanged: 0/0
  8090 ;; Data sizes:     COMRAM   BANK0   BANK1   BANK4
  8091 ;;      Params:         4       0       0       0
  8092 ;;      Locals:         1       0       0       0
  8093 ;;      Temps:          0       0       0       0
  8094 ;;      Totals:         5       0       0       0
  8095 ;;Total ram usage:        5 bytes
  8096 ;; Hardware stack levels used:    1
  8097 ;; This function calls:
  8098 ;;		Nothing
  8099 ;; This function is called by:
  8100 ;;		_main
  8101 ;; This function uses a non-reentrant model
  8102 ;;
  8103                           
  8104                           	psect	text28
  8105  0015C8                     __ptext28:
  8106                           	opt callstack 0
  8107  0015C8                     ___lwmod:
  8108                           	opt callstack 30
  8109  0015C8  5003               	movf	___lwmod@divisor^0,w,c
  8110  0015CA  1004               	iorwf	(___lwmod@divisor+1)^0,w,c
  8111  0015CC  B4D8               	btfsc	status,2,c
  8112  0015CE  EFEB  F00A         	goto	u2791
  8113  0015D2  EFED  F00A         	goto	u2790
  8114  0015D6                     u2791:
  8115  0015D6  EF11  F00B         	goto	l949
  8116  0015DA                     u2790:
  8117  0015DA  0E01               	movlw	1
  8118  0015DC  6E05               	movwf	___lwmod@counter^0,c
  8119  0015DE  EFF5  F00A         	goto	l3909
  8120  0015E2                     l3907:
  8121  0015E2  90D8               	bcf	status,0,c
  8122  0015E4  3603               	rlcf	___lwmod@divisor^0,f,c
  8123  0015E6  3604               	rlcf	(___lwmod@divisor+1)^0,f,c
  8124  0015E8  2A05               	incf	___lwmod@counter^0,f,c
  8125  0015EA                     l3909:
  8126  0015EA  AE04               	btfss	(___lwmod@divisor+1)^0,7,c
  8127  0015EC  EFFA  F00A         	goto	u2801
  8128  0015F0  EFFC  F00A         	goto	u2800
  8129  0015F4                     u2801:
  8130  0015F4  EFF1  F00A         	goto	l3907
  8131  0015F8                     u2800:
  8132  0015F8                     l3911:
  8133  0015F8  5003               	movf	___lwmod@divisor^0,w,c
  8134  0015FA  5C01               	subwf	___lwmod@dividend^0,w,c
  8135  0015FC  5004               	movf	(___lwmod@divisor+1)^0,w,c
  8136  0015FE  5802               	subwfb	(___lwmod@dividend+1)^0,w,c
  8137  001600  A0D8               	btfss	status,0,c
  8138  001602  EF05  F00B         	goto	u2811
  8139  001606  EF07  F00B         	goto	u2810
  8140  00160A                     u2811:
  8141  00160A  EF0B  F00B         	goto	l3915
  8142  00160E                     u2810:
  8143  00160E  5003               	movf	___lwmod@divisor^0,w,c
  8144  001610  5E01               	subwf	___lwmod@dividend^0,f,c
  8145  001612  5004               	movf	(___lwmod@divisor+1)^0,w,c
  8146  001614  5A02               	subwfb	(___lwmod@dividend+1)^0,f,c
  8147  001616                     l3915:
  8148  001616  90D8               	bcf	status,0,c
  8149  001618  3204               	rrcf	(___lwmod@divisor+1)^0,f,c
  8150  00161A  3203               	rrcf	___lwmod@divisor^0,f,c
  8151  00161C  2E05               	decfsz	___lwmod@counter^0,f,c
  8152  00161E  EFFC  F00A         	goto	l3911
  8153  001622                     l949:
  8154  001622  C001  F001         	movff	___lwmod@dividend,?___lwmod
  8155  001626  C002  F002         	movff	___lwmod@dividend+1,?___lwmod+1
  8156  00162A  0012               	return		;funcret
  8157  00162C                     __end_of___lwmod:
  8158                           	opt callstack 0
  8159                           
  8160 ;; *************** function ___awmod *****************
  8161 ;; Defined at:
  8162 ;;		line 7 in file "C:\Program Files (x86)\Microchip\xc8\v2.10\pic\sources\c99\common\awmod.c"
  8163 ;; Parameters:    Size  Location     Type
  8164 ;;  dividend        2   34[COMRAM] int 
  8165 ;;  divisor         2   36[COMRAM] int 
  8166 ;; Auto vars:     Size  Location     Type
  8167 ;;  sign            1   39[COMRAM] unsigned char 
  8168 ;;  counter         1   38[COMRAM] unsigned char 
  8169 ;; Return value:  Size  Location     Type
  8170 ;;                  2   34[COMRAM] int 
  8171 ;; Registers used:
  8172 ;;		wreg, status,2, status,0
  8173 ;; Tracked objects:
  8174 ;;		On entry : 0/0
  8175 ;;		On exit  : 0/0
  8176 ;;		Unchanged: 0/0
  8177 ;; Data sizes:     COMRAM   BANK0   BANK1   BANK4
  8178 ;;      Params:         4       0       0       0
  8179 ;;      Locals:         2       0       0       0
  8180 ;;      Temps:          0       0       0       0
  8181 ;;      Totals:         6       0       0       0
  8182 ;;Total ram usage:        6 bytes
  8183 ;; Hardware stack levels used:    1
  8184 ;; This function calls:
  8185 ;;		Nothing
  8186 ;; This function is called by:
  8187 ;;		_main
  8188 ;; This function uses a non-reentrant model
  8189 ;;
  8190                           
  8191                           	psect	text29
  8192  0019F0                     __ptext29:
  8193                           	opt callstack 0
  8194  0019F0                     ___awmod:
  8195                           	opt callstack 30
  8196  0019F0  0E00               	movlw	0
  8197  0019F2  6E28               	movwf	___awmod@sign^0,c
  8198  0019F4  BE24               	btfsc	(___awmod@dividend+1)^0,7,c
  8199  0019F6  EF01  F00D         	goto	u2730
  8200  0019FA  EFFF  F00C         	goto	u2731
  8201  0019FE                     u2731:
  8202  0019FE  EF07  F00D         	goto	l3875
  8203  001A02                     u2730:
  8204  001A02  6C23               	negf	___awmod@dividend^0,c
  8205  001A04  1E24               	comf	(___awmod@dividend+1)^0,f,c
  8206  001A06  B0D8               	btfsc	status,0,c
  8207  001A08  2A24               	incf	(___awmod@dividend+1)^0,f,c
  8208  001A0A  0E01               	movlw	1
  8209  001A0C  6E28               	movwf	___awmod@sign^0,c
  8210  001A0E                     l3875:
  8211  001A0E  BE26               	btfsc	(___awmod@divisor+1)^0,7,c
  8212  001A10  EF0E  F00D         	goto	u2740
  8213  001A14  EF0C  F00D         	goto	u2741
  8214  001A18                     u2741:
  8215  001A18  EF12  F00D         	goto	l3879
  8216  001A1C                     u2740:
  8217  001A1C  6C25               	negf	___awmod@divisor^0,c
  8218  001A1E  1E26               	comf	(___awmod@divisor+1)^0,f,c
  8219  001A20  B0D8               	btfsc	status,0,c
  8220  001A22  2A26               	incf	(___awmod@divisor+1)^0,f,c
  8221  001A24                     l3879:
  8222  001A24  5025               	movf	___awmod@divisor^0,w,c
  8223  001A26  1026               	iorwf	(___awmod@divisor+1)^0,w,c
  8224  001A28  B4D8               	btfsc	status,2,c
  8225  001A2A  EF19  F00D         	goto	u2751
  8226  001A2E  EF1B  F00D         	goto	u2750
  8227  001A32                     u2751:
  8228  001A32  EF3F  F00D         	goto	l3895
  8229  001A36                     u2750:
  8230  001A36  0E01               	movlw	1
  8231  001A38  6E27               	movwf	___awmod@counter^0,c
  8232  001A3A  EF23  F00D         	goto	l3885
  8233  001A3E                     l3883:
  8234  001A3E  90D8               	bcf	status,0,c
  8235  001A40  3625               	rlcf	___awmod@divisor^0,f,c
  8236  001A42  3626               	rlcf	(___awmod@divisor+1)^0,f,c
  8237  001A44  2A27               	incf	___awmod@counter^0,f,c
  8238  001A46                     l3885:
  8239  001A46  AE26               	btfss	(___awmod@divisor+1)^0,7,c
  8240  001A48  EF28  F00D         	goto	u2761
  8241  001A4C  EF2A  F00D         	goto	u2760
  8242  001A50                     u2761:
  8243  001A50  EF1F  F00D         	goto	l3883
  8244  001A54                     u2760:
  8245  001A54                     l3887:
  8246  001A54  5025               	movf	___awmod@divisor^0,w,c
  8247  001A56  5C23               	subwf	___awmod@dividend^0,w,c
  8248  001A58  5026               	movf	(___awmod@divisor+1)^0,w,c
  8249  001A5A  5824               	subwfb	(___awmod@dividend+1)^0,w,c
  8250  001A5C  A0D8               	btfss	status,0,c
  8251  001A5E  EF33  F00D         	goto	u2771
  8252  001A62  EF35  F00D         	goto	u2770
  8253  001A66                     u2771:
  8254  001A66  EF39  F00D         	goto	l3891
  8255  001A6A                     u2770:
  8256  001A6A  5025               	movf	___awmod@divisor^0,w,c
  8257  001A6C  5E23               	subwf	___awmod@dividend^0,f,c
  8258  001A6E  5026               	movf	(___awmod@divisor+1)^0,w,c
  8259  001A70  5A24               	subwfb	(___awmod@dividend+1)^0,f,c
  8260  001A72                     l3891:
  8261  001A72  90D8               	bcf	status,0,c
  8262  001A74  3226               	rrcf	(___awmod@divisor+1)^0,f,c
  8263  001A76  3225               	rrcf	___awmod@divisor^0,f,c
  8264  001A78  2E27               	decfsz	___awmod@counter^0,f,c
  8265  001A7A  EF2A  F00D         	goto	l3887
  8266  001A7E                     l3895:
  8267  001A7E  5028               	movf	___awmod@sign^0,w,c
  8268  001A80  B4D8               	btfsc	status,2,c
  8269  001A82  EF45  F00D         	goto	u2781
  8270  001A86  EF47  F00D         	goto	u2780
  8271  001A8A                     u2781:
  8272  001A8A  EF4B  F00D         	goto	l3899
  8273  001A8E                     u2780:
  8274  001A8E  6C23               	negf	___awmod@dividend^0,c
  8275  001A90  1E24               	comf	(___awmod@dividend+1)^0,f,c
  8276  001A92  B0D8               	btfsc	status,0,c
  8277  001A94  2A24               	incf	(___awmod@dividend+1)^0,f,c
  8278  001A96                     l3899:
  8279  001A96  C023  F023         	movff	___awmod@dividend,?___awmod
  8280  001A9A  C024  F024         	movff	___awmod@dividend+1,?___awmod+1
  8281  001A9E  0012               	return		;funcret
  8282  001AA0                     __end_of___awmod:
  8283                           	opt callstack 0
  8284  0000                     
  8285                           	psect	rparam
  8286  0000                     tosu	equ	0xFFF
  8287                           tosh	equ	0xFFE
  8288                           tosl	equ	0xFFD
  8289                           stkptr	equ	0xFFC
  8290                           pclatu	equ	0xFFB
  8291                           pclath	equ	0xFFA
  8292                           pcl	equ	0xFF9
  8293                           tblptru	equ	0xFF8
  8294                           tblptrh	equ	0xFF7
  8295                           tblptrl	equ	0xFF6
  8296                           tablat	equ	0xFF5
  8297                           prodh	equ	0xFF4
  8298                           prodl	equ	0xFF3
  8299                           indf0	equ	0xFEF
  8300                           postinc0	equ	0xFEE
  8301                           postdec0	equ	0xFED
  8302                           preinc0	equ	0xFEC
  8303                           plusw0	equ	0xFEB
  8304                           fsr0h	equ	0xFEA
  8305                           fsr0l	equ	0xFE9
  8306                           wreg	equ	0xFE8
  8307                           indf1	equ	0xFE7
  8308                           postinc1	equ	0xFE6
  8309                           postdec1	equ	0xFE5
  8310                           preinc1	equ	0xFE4
  8311                           plusw1	equ	0xFE3
  8312                           fsr1h	equ	0xFE2
  8313                           fsr1l	equ	0xFE1
  8314                           bsr	equ	0xFE0
  8315                           indf2	equ	0xFDF
  8316                           postinc2	equ	0xFDE
  8317                           postdec2	equ	0xFDD
  8318                           preinc2	equ	0xFDC
  8319                           plusw2	equ	0xFDB
  8320                           fsr2h	equ	0xFDA
  8321                           fsr2l	equ	0xFD9
  8322                           status	equ	0xFD8


Data Sizes:
    Strings     0
    Constant    0
    Data        60
    BSS         262
    Persistent  0
    Stack       0

Auto Spaces:
    Space          Size  Autos    Used
    COMRAM           95     94      95
    BANK0           160     16     101
    BANK1           256    220     236
    BANK4           256      0     220

Pointer List with Targets:

    time@t	PTR long long  size(2) Largest target is 0
		 -> NULL(NULL[0]), 

    glcd_draw_shape@forme	PTR unsigned char [2] size(2) Largest target is 8
		 -> main@prevForme(COMRAM[8]), main@forme(COMRAM[8]), 

    glcd_print_tab@tabAffichage	PTR unsigned char [10] size(2) Largest target is 220
		 -> main@tab(BANK1[220]), 

    changePos@position	PTR unsigned short  size(2) Largest target is 2
		 -> main@position(BANK0[2]), 

    transformForm@forme	PTR unsigned char [2] size(2) Largest target is 8
		 -> main@forme(COMRAM[8]), 

    makeForme@forme	PTR unsigned char [2] size(2) Largest target is 8
		 -> main@forme(COMRAM[8]), 

    eraseLine@tab	PTR unsigned char [10] size(2) Largest target is 220
		 -> main@tab(BANK1[220]), 

    checkLine@tab	PTR unsigned char [10] size(2) Largest target is 220
		 -> main@tab(BANK1[220]), 

    putPiece@forme	PTR unsigned char [2] size(2) Largest target is 8
		 -> main@forme(COMRAM[8]), 

    putPiece@tab	PTR unsigned char [10] size(2) Largest target is 220
		 -> main@tab(BANK1[220]), 

    checkCollision@forme	PTR unsigned char [2] size(2) Largest target is 8
		 -> main@forme(COMRAM[8]), 

    checkCollision@tab	PTR unsigned char [10] size(2) Largest target is 220
		 -> main@tab(BANK1[220]), 


Critical Paths under _main in COMRAM

    _main->_transformForm
    _srand->_time
    _rand->___omul
    _menuTetris->_glcd_draw_cube
    _affMenu->_glcd_PlotPixel
    _glcd_print_tab->_glcd_draw_cube
    _glcd_draw_shape->_glcd_draw_cube
    _glcd_draw_cube->_glcd_Rect
    _glcd_Rect->_glcd_PlotPixel
    _glcd_PlotPixel->_glcd_WriteByte
    _glcd_SetCursor->_glcd_WriteByte
    _glcd_Init->_glcd_FillScreen
    _glcd_FillScreen->_glcd_WriteByte
    _glcd_WriteByte->___awdiv
    _eraseLine->___wmul
    _checkLine->___wmul
    ___awmod->_rand

Critical Paths under _main in BANK0

    None.

Critical Paths under _main in BANK1

    None.

Critical Paths under _main in BANK4

    None.

Call Graph Tables:

 ---------------------------------------------------------------------------------
 (Depth) Function   	        Calls       Base Space   Used Autos Params    Refs
 ---------------------------------------------------------------------------------
 (0) _main                                               276   276      0  195054
                                             54 COMRAM    40    40      0
                                              0 BANK0     16    16      0
                                              0 BANK1    220   220      0
                            ___awmod
                            ___lwmod
                             ___wmul
                          _changePos
                     _checkCollision
                          _checkLine
                          _eraseLine
                          _glcd_Init
                     _glcd_SetCursor
                    _glcd_draw_shape
                     _glcd_print_tab
                       _initMyPIC18F
                          _makeForme
                               _menu
                           _putPiece
                               _rand
                              _srand
                               _time
                      _transformForm
 ---------------------------------------------------------------------------------
 (1) _transformForm                                       54    46      8    2213
                                              0 COMRAM    54    46      8
 ---------------------------------------------------------------------------------
 (1) _time                                                 8     0      8     120
                                              0 COMRAM     8     0      8
 ---------------------------------------------------------------------------------
 (1) _srand                                                6     4      2      98
                                              8 COMRAM     6     4      2
                               _time (ARG)
 ---------------------------------------------------------------------------------
 (1) _rand                                                10     8      2     370
                                             24 COMRAM    10     8      2
                             ___omul
 ---------------------------------------------------------------------------------
 (2) ___omul                                              24     8     16     370
                                              0 COMRAM    24     8     16
 ---------------------------------------------------------------------------------
 (1) _putPiece                                            16    10      6     384
                                              0 COMRAM    16    10      6
 ---------------------------------------------------------------------------------
 (1) _menu                                                 4     4      0   70216
                                             27 COMRAM     4     4      0
                            _affMenu
                    _glcd_FillScreen
                         _menuTetris
 ---------------------------------------------------------------------------------
 (2) _menuTetris                                           0     0      0   37987
                    _glcd_FillScreen
                     _glcd_draw_cube
 ---------------------------------------------------------------------------------
 (2) _affMenu                                              0     0      0   30309
                    _glcd_FillScreen
                     _glcd_PlotPixel
 ---------------------------------------------------------------------------------
 (1) _makeForme                                           40    36      4    2052
                                              0 COMRAM    40    36      4
 ---------------------------------------------------------------------------------
 (1) _initMyPIC18F                                         0     0      0       0
 ---------------------------------------------------------------------------------
 (1) _glcd_print_tab                                       7     5      2   66422
                                             27 COMRAM     7     5      2
                          _glcd_Rect
                     _glcd_draw_cube
 ---------------------------------------------------------------------------------
 (1) _glcd_draw_shape                                      8     5      3   37159
                                             27 COMRAM     8     5      3
                     _glcd_draw_cube
 ---------------------------------------------------------------------------------
 (3) _glcd_draw_cube                                       3     1      2   36091
                                             24 COMRAM     3     1      2
                          _glcd_Rect
 ---------------------------------------------------------------------------------
 (4) _glcd_Rect                                            7     3      4   29791
                                             17 COMRAM     7     3      4
                     _glcd_PlotPixel
 ---------------------------------------------------------------------------------
 (5) _glcd_PlotPixel                                       7     5      2   28413
                                             10 COMRAM     7     5      2
                            ___awdiv
                      _glcd_ReadByte
                     _glcd_WriteByte
 ---------------------------------------------------------------------------------
 (6) _glcd_ReadByte                                        2     2      0      45
                                              0 COMRAM     2     2      0
 ---------------------------------------------------------------------------------
 (6) ___awdiv                                              8     4      4     604
                                              0 COMRAM     8     4      4
 ---------------------------------------------------------------------------------
 (1) _glcd_SetCursor                                       3     2      1    1993
                                             10 COMRAM     3     2      1
                     _glcd_WriteByte
 ---------------------------------------------------------------------------------
 (1) _glcd_Init                                            1     1      0    3634
                                             13 COMRAM     1     1      0
                    _glcd_FillScreen
                     _glcd_WriteByte
 ---------------------------------------------------------------------------------
 (3) _glcd_FillScreen                                      3     3      0    1896
                                             10 COMRAM     3     3      0
                     _glcd_WriteByte
 ---------------------------------------------------------------------------------
 (6) _glcd_WriteByte                                       2     1      1    1716
                                              8 COMRAM     2     1      1
                            ___awdiv (ARG)
 ---------------------------------------------------------------------------------
 (1) _eraseLine                                           16    10      6    2442
                                              6 COMRAM    16    10      6
                             ___wmul
 ---------------------------------------------------------------------------------
 (1) _checkLine                                           11     7      4    2165
                                              6 COMRAM    11     7      4
                             ___wmul
 ---------------------------------------------------------------------------------
 (2) ___wmul                                               6     2      4    1877
                                              0 COMRAM     6     2      4
 ---------------------------------------------------------------------------------
 (1) _checkCollision                                      17    13      4     376
                                              0 COMRAM    17    13      4
 ---------------------------------------------------------------------------------
 (1) _changePos                                            4     2      2     120
                                              0 COMRAM     4     2      2
 ---------------------------------------------------------------------------------
 (1) ___lwmod                                              5     1      4     463
                                              0 COMRAM     5     1      4
 ---------------------------------------------------------------------------------
 (1) ___awmod                                              6     2      4     448
                                             34 COMRAM     6     2      4
                               _rand (ARG)
 ---------------------------------------------------------------------------------
 Estimated maximum stack depth 6
 ---------------------------------------------------------------------------------

 Call Graph Graphs:

 _main (ROOT)
   ___awmod
     _rand (ARG)
       ___omul
   ___lwmod
   ___wmul
   _changePos
   _checkCollision
   _checkLine
     ___wmul
   _eraseLine
     ___wmul
   _glcd_Init
     _glcd_FillScreen
       _glcd_WriteByte
         ___awdiv (ARG)
     _glcd_WriteByte
       ___awdiv (ARG)
   _glcd_SetCursor
     _glcd_WriteByte
       ___awdiv (ARG)
   _glcd_draw_shape
     _glcd_draw_cube
       _glcd_Rect
         _glcd_PlotPixel
           ___awdiv
           _glcd_ReadByte
           _glcd_WriteByte
             ___awdiv (ARG)
   _glcd_print_tab
     _glcd_Rect
       _glcd_PlotPixel
         ___awdiv
         _glcd_ReadByte
         _glcd_WriteByte
           ___awdiv (ARG)
     _glcd_draw_cube
       _glcd_Rect
         _glcd_PlotPixel
           ___awdiv
           _glcd_ReadByte
           _glcd_WriteByte
             ___awdiv (ARG)
   _initMyPIC18F
   _makeForme
   _menu
     _affMenu
       _glcd_FillScreen
         _glcd_WriteByte
           ___awdiv (ARG)
       _glcd_PlotPixel
         ___awdiv
         _glcd_ReadByte
         _glcd_WriteByte
           ___awdiv (ARG)
     _glcd_FillScreen
       _glcd_WriteByte
         ___awdiv (ARG)
     _menuTetris
       _glcd_FillScreen
         _glcd_WriteByte
           ___awdiv (ARG)
       _glcd_draw_cube
         _glcd_Rect
           _glcd_PlotPixel
             ___awdiv
             _glcd_ReadByte
             _glcd_WriteByte
               ___awdiv (ARG)
   _putPiece
   _rand
     ___omul
   _srand
     _time (ARG)
   _time
   _transformForm

 Address spaces:
Name               Size   Autos  Total    Cost      Usage
BIGRAM             1FF      0       0      11        0.0%
BITBANK4           100      0       0       8        0.0%
BANK4              100      0      DC       9       85.9%
BITBANK1           100      0       0       6        0.0%
BANK1              100     DC      EC       7       92.2%
BIGRAM_1           100      0       0      10        0.0%
BITBANK0            A0      0       0       4        0.0%
BANK0               A0     10      65       5       63.1%
BITCOMRAM           5F      0       0       0        0.0%
COMRAM              5F     5E      5F       1      100.0%
BITSFR               0      0       0     200        0.0%
SFR                  0      0       0     200        0.0%
STACK                0      0       0       2        0.0%
NULL                 0      0       0       0        0.0%
ABS                  0      0     28C       3        0.0%
DATA                 0      0     28C      12        0.0%
CODE                 0      0       0       0        0.0%


Microchip Technology PIC18 Macro Assembler V2.10 build 88905656 
Symbol Table                                                                                   Tue Dec 03 16:48:29 2019

                         _x 005F                           _y 00AC                          l97 3F44  
                        l99 3F58                ___awdiv@sign 0006            ??_glcd_PlotPixel 000D  
         transformForm@F676 009C         ___wmul@multiplicand 0003                         l101 3F9C  
                       l110 3FFC                         l103 3F96                         l121 3648  
                       l105 3FCC                         l107 3FC6                         l132 206E  
                       l124 227C                         l109 3FE0                         l142 1870  
                       l302 1412                         l310 1DB2                         l118 170E  
                       l303 1416                         l128 2066                         l144 18B2  
                       l304 1430                         l224 2D10                         l313 1656  
                       l321 1B5C                         l137 181A                         l154 1F7E  
                       l322 1ACE                         l316 1692                         l324 1AD6  
                       l340 1C1C                         l262 13BC                         l343 15C6  
                       l290 13D8                         l259 2772                         l292 13F6  
                       l348 1566                         l295 1716                         l287 1950  
                       l375 135A                         l448 132A                         l465 19CE  
                       l466 19EE                         l299 178E                         l692 1A9E  
                       l679 1CE0                         l956 162A                         l949 1622  
              __CFG_BOR$OFF 000000                ___awmod@sign 0028                         wreg 000FE8  
              __CFG_FOSC$HS 000000                __CFG_LVP$OFF 000000          transformForm@i_353 0025  
        transformForm@i_355 0029          transformForm@i_357 002D          transformForm@i_359 0031  
        transformForm@j_360 0033          transformForm@j_354 0027          transformForm@j_356 002B  
        transformForm@j_358 002F                __CFG_WDT$OFF 000000                        l1131 14B8  
                      l1124 138A                        l1127 1E90                        l3001 30DE  
                      l3011 3124                        l3003 30EC                        l3101 339A  
                      l3021 316A                        l3013 3132                        l3005 30FA  
                      l3111 33E0                        l3103 33A8                        l3031 31B0  
                      l3023 3178                        l3015 3140                        l3007 3108  
                      l3121 3426                        l3113 33EE                        l3105 33B6  
                      l3041 31F6                        l3033 31BE                        l3025 3186  
                      l3017 314E                        l3009 3116                        l4001 3A80  
                      l3131 346C                        l3123 3434                        l3115 33FC  
                      l3107 33C4                        l3051 323C                        l3043 3204  
                      l3035 31CC                        l3027 3194                        l3019 315C  
                      l4011 3AC6                        l4003 3A84                        l3141 34B2  
                      l3133 347A                        l3125 3442                        l3117 340A  
                      l3109 33D2                        l3061 3282                        l3053 324A  
                      l3045 3212                        l3037 31DA                        l3029 31A2  
                      l3301 16EE                        l3221 199E                        l3213 1952  
                      l4021 3B32                        l4013 3AD8                        l4005 3A96  
                      l3207 1306                        l3231 18BC                        l3223 132C  
                      l3151 34F8                        l3143 34C0                        l3135 3488  
                      l3127 3450                        l3119 3418                        l3071 32C8  
                      l3063 3290                        l3055 3258                        l3047 3220  
                      l3039 31E8                        l3303 16F4                        l3215 195E  
                      l3311 14A8                        l4111 3E08                        l4103 3DD2  
                      l4031 3BB2                        l4015 3AEA                        l4007 3AAA  
                      l4023 3B42                        l3209 1322                        l3241 18CC  
                      l3233 18C4                        l3225 1344                        l3401 287E  
                      l3161 353E                        l3153 3506                        l3145 34CE  
                      l3137 3496                        l3129 345E                        l3081 330E  
                      l3073 32D6                        l3065 329E                        l3057 3266  
                      l3049 322E                        l3305 16FC                        l3217 196C  
                      l4121 3E40                        l4105 3DEE                        l4113 3E14  
                      l4041 3BEE                        l4033 3BC2                        l4025 3B68  
                      l4017 3AFE                        l4009 3AB6                        l3251 18F0  
                      l3243 18CE                        l3235 18C6                        l3227 18B6  
                      l3331 1B7C                        l3411 28A4                        l3403 2882  
                      l3171 3584                        l3163 354C                        l3155 3514  
                      l3147 34DC                        l3139 34A4                        l3091 3354  
                      l3083 331C                        l3075 32E4                        l3067 32AC  
                      l3059 3274                        l3219 198C                        l3315 135C  
                      l3307 146E                        l4131 3EBA                        l4115 3E1E  
                      l4107 3E00                        l4051 3C5C                        l4043 3C00  
                      l4035 3BD2                        l4027 3B7A                        l4019 3B22  
                      l2701 13DC                        l3261 1936                        l3253 18FA  
                      l3245 18D2                        l3237 18C8                        l3229 18BA  
                      l3341 1BFA                        l3333 1BAC                        l3325 1B78  
                      l3317 1B5E                        l3501 2B06                        l3421 28D0  
                      l3405 289C                        l3181 35CA                        l3173 3592  
                      l3165 355A                        l3157 3522                        l3149 34EA  
                      l3093 3362                        l3085 332A                        l3077 32F2  
                      l3069 32BA                        l3309 1480                        l4141 3EE6  
                      l4125 3E5A                        l4061 3CCE                        l4053 3CA4  
                      l4045 3C20                        l4029 3B8E                        l4037 3BD8  
                      l2711 13EC                        l2703 13E0                        l3263 194A  
                      l3255 1904                        l3247 18DC                        l3239 18CA  
                      l3271 165E                        l3343 1C0A                        l3335 1BBA  
                      l3319 1B74                        l3511 2B4C                        l3503 2B0E  
                      l3431 293E                        l3423 28E4                        l3191 3610  
                      l3183 35D8                        l3175 35A0                        l3167 3568  
                      l3159 3530                        l3095 3370                        l3087 3338  
                      l3079 3300                        l4143 3F0C                        l4127 3EB2  
                      l4119 3E38                        l4071 3D1E                        l4055 3CAC  
                      l4135 3EC2                        l4047 3C2A                        l4039 3BDC  
                      l2713 13EE                        l2705 13E2                        l3257 190E  
                      l3249 18E6                        l3281 1684                        l3273 166E  
                      l3265 162E                        l2721 140A                        l2801 1DA8  
                      l3345 1C0C                        l3337 1BEA                        l3513 2B60  
                      l3521 2BA8                        l3441 2964                        l3433 2942  
                      l3425 28F6                        l3417 28AC                        l3361 2784  
                      l3193 361E                        l3185 35E6                        l3177 35AE  
                      l3169 3576                        l3097 337E                        l3089 3346  
                      l3601 236E                        l4161 3F9E                        l4153 3F52  
                      l4145 3F28                        l4137 3ECC                        l4081 3D48  
                      l4065 3CE8                        l4049 3C36                        l3347 138C  
                      l2715 13F2                        l2707 13E6                        l3259 191E  
                      l3283 1690                        l3275 1672                        l3267 1632  
                      l2731 1C3C                        l2723 1C1E                        l2811 1ADE  
                      l2803 1AA2                        l3339 1BF8                        l3531 2BD2  
                      l3515 2B72                        l3507 2B28                        l3451 2990  
                      l3435 295C                        l3427 2924                        l3419 28BE  
                      l3371 27EA                        l3363 27B2                        l3355 277C  
                      l3195 362C                        l3187 35F4                        l3179 35BC  
                      l3099 338C                        l3291 16AA                        l3611 2394  
                      l3603 2372                        l4163 3FB2                        l4155 3F5A  
                      l4147 3F2E                        l4083 3D50                        l4067 3D16  
                      l4075 3D26                        l4059 3CC6                        l2717 13F4  
                      l2709 13E8                        l3277 1676                        l3269 1642  
                      l2741 1C70                        l2733 1C4A                        l2725 1C22  
                      l2821 1B34                        l2813 1AF0                        l3541 2C18  
                      l3533 2BDA                        l3525 2BB0                        l3517 2BA0  
                      l3509 2B3A                        l3461 29FE                        l3453 29A4  
                      l3429 2928                        l3381 280C                        l3365 27B6  
                      l3349 2774                        l3197 363A                        l3189 3602  
                      l2901 2E22                        l3293 16BA                        l3285 1694  
                      l3701 273E                        l3621 244E                        l3605 238C  
                      l4157 3F6E                        l4149 3F3A                        l4093 3DA0  
                      l4077 3D2E                        l4165 3FCE                        l3279 1678  
                      l2751 1CAA                        l2743 1C78                        l2735 1C52  
                      l2727 1C30                        l2719 13FA                        l2815 1B02  
                      l2823 1B36                        l2807 1AB8                        l3543 2C2C  
                      l3551 2C74                        l3527 2BB8                        l3471 2A24  
                      l3463 2A02                        l3455 29B6                        l3447 296C  
                      l3383 2826                        l3367 27CC                        l2911 2E68  
                      l2903 2E30                        l3199 2070                        l3295 16BE  
                      l3287 169C                        l3703 2742                        l3631 248A  
                      l3623 2452                        l4167 3FE2                        l4159 3F82  
                      l4087 3D6A                        l3801 1F3E                        l2841 1744  
                      l2761 1CD0                        l2753 1CB2                        l2745 1C80  
                      l2737 1C56                        l2729 1C38                        l2825 1B48  
                      l2817 1B14                        l3721 1554                        l3713 150A  
                      l3561 2C9E                        l3545 2C3E                        l3537 2BF4  
                      l3481 2A6A                        l3473 2A2C                        l3465 2A1C  
                      l3457 29E4                        l3449 297E                        l3377 27F2  
                      l3369 27D0                        l2921 2EAE                        l2913 2E76  
                      l2905 2E3E                        l3297 16D8                        l3289 16A2  
                      l3705 2758                        l3625 2456                        l3617 239C  
                      l4169 3FFA                        l4089 3D98                        l4097 3DA8  
                      l3731 1F80                        l3811 1F50                        l2851 176A  
                      l2843 1746                        l2835 1718                        l2763 1CD8  
                      l2755 1CB4                        l2747 1C8E                        l2739 1C5E  
                      l2771 1CF8                        l2819 1B26                        l2827 1B4A  
                      l3723 1556                        l3563 2CB4                        l3555 2C7C  
                      l3547 2C6C                        l3539 2C06                        l3483 2A7E  
                      l3491 2AC6                        l3459 29E8                        l3395 2836  
                      l3379 2808                        l2931 2EF4                        l2923 2EBC  
                      l2915 2E84                        l2907 2E4C                        l3299 16DC  
                      l3707 275C                        l4291 26A4                        l3651 255C  
                      l3643 249A                        l3627 246C                        l3619 23D6  
                      l4099 3DB8                        l3741 2040                        l3813 1F60  
                      l3805 1F48                        l2853 176C                        l2837 172C  
                      l2829 1712                        l2757 1CBA                        l2749 1C94  
                      l2781 1D06                        l2773 1CFC                        l4293 2CD2  
                      l3557 2C84                        l3493 2ACA                        l3485 2A90  
                      l3477 2A46                        l3397 2864                        l3389 282E  
                      l2941 2F3A                        l2933 2F02                        l2925 2ECA  
                      l2917 2E92                        l2909 2E5A                        l2861 2D12  
                      l3725 1DB4                        l3653 2572                        l3645 24D4  
                      l3637 2492                        l3629 2470                        l3911 15F8  
                      l3903 15C8                        l3743 204C                        l3815 1F64  
                      l2855 177C                        l2839 1738                        l2759 1CC0  
                      l2791 1D42                        l2783 1D30                        l2775 1D00  
                      l2767 1CE4                        l3719 150E                        l3495 2AE4  
                      l3487 2ABE                        l3479 2A58                        l3399 2868  
                      l2951 2F80                        l2943 2F48                        l2935 2F10  
                      l2927 2ED8                        l2919 2EA0                        l2871 2D50  
                      l2863 2D18                        l3727 1E4A                        l3671 25DA  
                      l3663 2598                        l3655 2576                        l3647 2554  
                      l3591 22A6                        l3575 227E                        l3913 160E  
                      l3905 15DA                        l3745 2050                        l3737 1F90  
                      l3817 1F7A                        l2697 13C0                        l2857 177E  
                      l2849 174A                        l2793 1D4C                        l2785 1D32  
                      l2777 1D02                        l2769 1CE8                        l3497 2AEC  
                      l3569 2CBC                        l2961 2FC6                        l2953 2F8E  
                      l2945 2F56                        l2937 2F1E                        l2929 2EE6  
                      l2881 2D96                        l2873 2D5E                        l2865 2D26  
                      l3753 1798                        l3681 2674                        l3673 2652  
                      l3657 2590                        l3649 2558                        l3593 22E0  
                      l3585 229E                        l3577 228A                        l3921 364E  
                      l3915 1616                        l3907 15E2                        l3739 200C  
                      l3771 188A                        l2699 13D0                        l2795 1D5C  
                      l2787 1D38                        l2779 1D04                        l2859 156A  
                      l2971 300C                        l2963 2FD4                        l2955 2F9C  
                      l2947 2F64                        l2939 2F2C                        l2891 2DDC  
                      l2883 2DA4                        l2875 2D6C                        l2867 2D34  
                      l3755 1800                        l3747 1790                        l3675 2656  
                      l3595 2350                        l3579 2296                        l3931 369C  
                      l3923 3654                        l3917 161C                        l3909 15EA  
                      l3773 189E                        l3765 182C                        l2797 1D82  
                      l2789 1D40                        l2981 3052                        l2973 301A  
                      l2965 2FE2                        l2957 2FAA                        l2949 2F72  
                      l2893 2DEA                        l2885 2DB2                        l2877 2D7A  
                      l2869 2D42                        l3757 1804                        l3693 26D2  
                      l3677 265A                        l3669 25A0                        l3597 2354  
                      l3685 268E                        l3941 36D2                        l3933 36A8  
                      l3925 365E                        l3871 1A02                        l3767 186C  
                      l3759 181C                        l3783 1E92                        l2799 1DA6  
                      l2991 3098                        l2983 3060                        l2975 3028  
                      l2967 2FF0                        l2959 2FB8                        l2895 2DF8  
                      l2887 2DC0                        l2879 2D88                        l3679 2670  
                      l3687 26CA                        l3599 2358                        l3951 36FA  
                      l3943 36DA                        l3935 36B4                        l3927 3660  
                      l3919 364A                        l3881 1A36                        l3873 1A0A  
                      l3769 1874                        l3785 1E9A                        l2993 30A6  
                      l2985 306E                        l2977 3036                        l2969 2FFE  
                      l2897 2E06                        l2889 2DCE                        l3961 375A  
                      l3953 3702                        l3945 36E2                        l3937 36C0  
                      l3929 3664                        l3891 1A72                        l3883 1A3E  
                      l3875 1A0E                        l3867 19F0                        l3779 18AA  
                      l3795 1EB8                        l2995 30B4                        l2987 307C  
                      l2979 3044                        l2899 2E14                        l3699 26DA  
                      l3971 3896                        l3963 376E                        l3955 3712  
                      l3947 36EA                        l3939 36CA                        l3893 1A78  
                      l3885 1A46                        l3877 1A1C                        l3869 19F4  
                      l3797 1F24                        l3789 1EB0                        l2997 30C2  
                      l2989 308A                        l3981 398C                        l3965 37B8  
                      l3973 389C                        l3957 3738                        l3949 36F2  
                      l3887 1A54                        l3895 1A7E                        l3879 1A24  
                      l3799 1F28                        l2999 30D0                        l3991 3A22  
                      l3983 39D6                        l3975 38AE                        l3967 3802  
                      l3959 374A                        l3897 1A8E                        l3889 1A6A  
                      l3993 3A34                        l3985 39EC                        l3977 38F8  
                      l3969 384C                        l3899 1A96                        l3995 3A4A  
                      l3987 39FA                        l3979 3942                        l3997 3A58  
                      l3989 3A0C                        l3999 3A6A                        u2000 1652  
                      u2001 164E                        u2010 166E                        u2011 166A  
                      u2100 27CC                        u2020 16BA                        u2101 27C8  
                      u2021 16B6                        u2110 27E6                        u2030 16EE  
                      u2111 27E2                        u2031 16EA                        u2200 2958  
                      u2120 2822                        u2040 170E                        u3000 3A0C  
                      u2201 2954                        u2121 281E                        u2041 170A  
                      u3001 3A08                        u2210 297E                        u2130 287E  
                      u2050 1480                        u3010 3A22                        u2211 297A  
                      u2131 287A                        u2051 147C                        u3011 3A1E  
                      u2060 1BAC                        u2300 2A7E                        u2220 2990  
                      u2140 2898                        u3100 3AD8                        u3020 3A34  
                      u2061 1BA8                        u2301 2A7A                        u2221 298C  
                      u2141 2894                        u3101 3AD4                        u3021 3A30  
                      u2070 1BEA                        u2310 2A90                        u2230 29A4  
                      u2150 28BE                        u3110 3AEA                        u3030 3A4A  
                      u2071 1BE6                        u2311 2A8C                        u2231 29A0  
                      u2151 28BA                        u3111 3AE6                        u3031 3A46  
                      u2080 1C0A                        u2400 2BF0                        u2320 2AE0  
                      u2240 29B6                        u2160 28D0                        u3200 3DCE  
                      u3120 3B68                        u3040 3A58                        _LATD 000F8C  
                      u2081 1C06                        u2401 2BEC                        u2321 2ADC  
                      u2241 29B2                        u2161 28CC                        u3201 3DCA  
                      u3121 3B64                        u3041 3A54                        u2090 1C1C  
                      u2410 2C06                        u2330 2B02                        u2250 29FE  
                      u2170 28E4                        u3210 3DEE                        u3130 3B7A  
                      u3050 3A6A                        u2091 1C18                        u2411 2C02  
                      u2331 2AFE                        u2251 29FA                        u2171 28E0  
                      u3211 3DEA                        u3131 3B76                        u3051 3A66  
                      u2420 2C18                        u2340 2B24                        u2260 2A18  
                      u2180 28F6                        u2500 23D6                        u3300 3FB2  
                      u3220 3E34                        u3140 3BEE                        u3060 3A80  
                      u2421 2C14                        u2341 2B20                        u2261 2A14  
                      u2181 28F2                        u2501 23D2                        u3301 3FAE  
                      u3221 3E30                        u3141 3BEA                        u3061 3A7C  
                      u2430 2C2C                        u2350 2B3A                        u2270 2A42  
                      u2190 293E                        u2510 246C                        u3310 3FC6  
                      u3230 3E56                        u3150 3C5C                        u3070 3A96  
                      u2431 2C28                        u2351 2B36                        u2271 2A3E  
                      u2191 293A                        u2511 2468                        u3311 3FC2  
                      u3231 3E52                        u3151 3C58                        u3071 3A92  
                      u1720 13D0                        u1800 1CF8                        u2440 2C3E  
                      u2360 2B4C                        u2280 2A58                        u2600 2772  
                      u2520 2486                        u3320 3FE0                        u3240 3EE2  
                      u3160 3CC2                        u3080 3AAA                        u1721 13CC  
                      u1801 1CF4                        u2441 2C3A                        u2361 2B48  
                      u2281 2A54                        u2601 276E                        u2521 2482  
                      u3321 3FDC                        u3241 3EDE                        u3161 3CBE  
                      u3081 3AA6                        u1730 140A                        u1810 1D5C  
                      u2610 1566                        u2450 2C9A                        u2370 2B60  
                      u2290 2A6A                        u2530 24D4                        u3250 3F0C  
                      u3170 3CE4                        u3090 3AC6                        u1731 1406  
                      u1811 1D58                        u2611 1562                        u2451 2C96  
                      u2371 2B5C                        u2291 2A66                        u2531 24D0  
                      u3251 3F08                        u3171 3CE0                        u3091 3AC2  
                      u2700 1EAC                        u1740 1C30                        u1900 1B48  
                      u2380 2B72                        u2620 1E82                        u2540 2572  
                      u3260 3F52                        u3180 3D44               __CFG_DEBUG$ON 000000  
                      u2701 1EA8                        u1741 1C2C                        u1901 1B44  
                      u2381 2B6E                        u2541 256E                        u2461 2284  
                      u3261 3F4E                        u3181 3D40                        u2630 200C  
                      u2710 1F3E                        u1750 1C4A                        u1910 1B5C  
                      u2390 2BCE                        u2550 258C                        u2470 22E0  
                      u3270 3F6E                        u3190 3D66                        u2631 2008  
                      u2711 1F3A                        u1751 1C46                        u1911 1B58  
                      u2391 2BCA                        u2551 2588                        u2471 22DC  
                      u3271 3F6A                        u3191 3D62                        u2800 15F8  
                      u2640 2040                        u2720 1F7A                        u1920 177C  
                      u1760 1C70                        u1824 1D72                        u1840 1AB4  
                      u2560 25DA                        u2480 236E                        u3280 3F82  
                      u2801 15F4                        u2641 203C                        u2721 1F76  
                      u1921 1778                        u1761 1C6C                        u1825 1D6E  
                      u1841 1AB0                        u2625 1E70                        u2561 25D6  
                      u2481 236A                        u3281 3F7E                        u2730 1A02  
                      u2810 160E                        u2650 2066                        u1930 178E  
                      u1770 1C8E                        u1834 1D98                        u1850 1ACA  
                      u2570 2670                        u2490 2388                        u3290 3F96  
                      u2731 19FE                        u2811 160A                        u2651 2062  
                      u1931 178A                        u1771 1C8A                        u1835 1D94  
                      u1851 1AC6                        u2571 266C                        u2491 2384  
                      u3291 3F92                        u2740 1A1C                        u1780 1CAA  
                      u1860 1AF0                        u2660 181A                        u2580 268A  
                      u2900 3802                        u2741 1A18                        u1781 1CA6  
                      u1861 1AEC                        u2661 1816                        u2581 2686  
                      u3437 3FEC                        u2901 37FE                        u2821 36A2  
                      u2750 1A36                        u2670 186C                        u1790 1CD0  
                      u1870 1B02                        u2590 2758                        u2910 384C  
                      u2751 1A32                        u2671 1868                        u1791 1CCC  
                      u1871 1AFE                        u3447 16C8                        u1951 1958  
                      u2591 2754                        u2911 3848                        u2831 36AE  
                      u2760 1A54                        u2680 188A                        u1880 1B14  
                      u1960 196C                        u2920 3896                        u2761 1A50  
                      u2681 1886                        u3457 18BE                        u1881 1B10  
                      u1961 1968                        u2921 3892                        u2841 36BA  
                      u2770 1A6A                        u2690 189E                        u1890 1B26  
                      u1970 19CE                        u2930 38AE                        u2850 3738  
                      u2771 1A66                        u2691 189A                        u1891 1B22  
                      u1971 19CA                        u2931 38AA                        u2851 3734  
                      u2780 1A8E                        u1980 191E                        u2940 38F8  
                      u2860 374A                        u2781 1A8A                        u1981 191A  
                      u2941 38F4                        u2861 3746                        u2790 15DA  
                      u1990 1642                        u2950 3942                        u2870 375A  
                      u2791 15D6                        u1991 163E                        u2951 393E  
                      u2871 3756                        u2960 398C                        u2880 376E  
                      u2961 3988                        u2881 376A                        u2970 39D6  
                      u2890 37B8                        u2971 39D2                        u2891 37B4  
                      u2980 39EC                        u2981 39E8                        u2990 39FA  
                      u2991 39F6          transformForm@forme 0001            ??_glcd_WriteByte 000A  
  __size_of_glcd_draw_shape 005E             ?_checkCollision 0001                        _main 364A  
                      _menu 1694                        _rand 1DB4                        _seed 00AD  
                      _time 146E                        fsr2h 000FDA                        indf1 000FE7  
                      indf2 000FDF                        fsr1l 000FE1                        fsr2l 000FD9  
                      prodh 000FF4                        prodl 000FF3                        start 0000  
              ___param_bank 000000               _transformForm 227E                       ?_main 0001  
                     ?_menu 0001                       ?_rand 0019             __end_of___awdiv 1CE2  
      checkCollision@result 000E             __end_of___awmod 1AA0                       ?_time 0001  
           __end_of_affMenu 364A             ___awdiv@divisor 0003             __end_of___lwmod 162C  
           ___awdiv@counter 0005                       _PORTA 000F80                       _PORTB 000F81  
                     _PORTC 000F82                       _PORTD 000F83                       _PORTE 000F84  
             putPiece@forme 0003                       _TRISA 000F92                       _TRISB 000F93  
                     _TRISC 000F94                       _TRISD 000F95                       _TRISE 000F96  
             __CFG_PWRT$OFF 000000            ??_glcd_draw_cube 001B                       _srand 135C  
                     main@i 0053                       main@j 0055                       main@x 00C1  
                     main@y 00C3                       tablat 000FF5                       time@t 0001  
              main@position 00BB                       status 000FD8                eraseLine@tab 0007  
             ?_initMyPIC18F 0001          glcd_WriteByte@data 0009             __initialization 14BA  
         checkCollision@tab 0001          glcd_WriteByte@side 000A                __end_of_main 4000  
              __end_of_menu 1710                __end_of_rand 1E92                __end_of_time 14BA  
      glcd_draw_shape@color 001E        glcd_draw_shape@forme 001C              ?_transformForm 0001  
                    ??_main 0037                      ??_menu 001C                      ??_rand 001B  
                    ??_time 0009               __activetblptr 000002             _glcd_FillScreen 1710  
          ??_glcd_print_tab 001E                      _ADCON0 000FC2                      _ADCON1 000FC1  
          ___awdiv@dividend 0001                      ?_srand 0009              putPiece@points 0005  
            ??_initMyPIC18F 0001           ??_glcd_draw_shape 001F             glcd_print_tab@i 0021  
           glcd_print_tab@j 0022                      ___omul 1952                      ___wmul 1306  
                 ??___awdiv 0005                   ??___awmod 0027               checkLine@line 0009  
                 ??_affMenu 0012                   ??___lwmod 0005                      clear_0 14E0  
                    clear_1 14EC                      clear_2 14F8            ___awdiv@quotient 0007  
           ___awmod@divisor 0025             ___awmod@counter 0027               main@prevForme 003F  
                    tblptrh 000FF7            __end_of_putPiece 181C                      tblptrl 000FF6  
                    tblptru 000FF8                      srand@s 0009               eraseLine@line 0009  
                __accesstop 0060     __end_of__initialization 1500               main@typeForme 00BD  
             ___rparam_used 000001              __pcstackCOMRAM 0001                __pidataBANK0 1432  
        __size_of_checkLine 0098             ??_transformForm 0009     __end_of_glcd_FillScreen 1790  
        __size_of_changePos 0032               __end_of_srand 138C          __size_of_glcd_Init 009E  
        __size_of_glcd_Rect 00BE          __size_of_makeForme 059E            ??_checkCollision 0005  
        __size_of_eraseLine 00EE                     ??_srand 000B                  __pbssBANK0 009C  
                __pbssBANK1 01DC                  __pbssBANK4 0400       __end_of_glcd_ReadByte 1432  
                   ?___omul 0001                     ?___wmul 0001         ___omul@multiplicand 0009  
            makeForme@i_331 0019              makeForme@i_324 0009              makeForme@i_333 001D  
            makeForme@i_326 000D              makeForme@i_335 0021              makeForme@i_327 000F  
            makeForme@i_337 0025              makeForme@i_329 0015              makeForme@i_339 0013  
            makeForme@j_330 0017              makeForme@j_332 001B              makeForme@j_334 001F  
            makeForme@j_336 0023              makeForme@j_328 0011              makeForme@j_338 0027  
            makeForme@forme 0001        __end_of_initMyPIC18F 135C           __end_of_checkLine 18B4  
         __end_of_changePos 13BE       transformForm@newForme 0011           __end_of_glcd_Init 1952  
         __end_of_glcd_Rect 1B5E                     __Hparam 0000                     __Lparam 0000  
                checkLine@i 0010           __end_of_makeForme 2D12                   ?_putPiece 0001  
                   ___awdiv 1C1E                     ___awmod 19F0           __end_of_eraseLine 1F80  
           __size_of___omul 009E             __size_of___wmul 0026                     _affMenu 2D12  
          ?_glcd_FillScreen 0001                     ___lwmod 15C8       transformForm@position 0007  
                   __pcinit 14BA                  _menuTetris 2070                     __ramtop 0500  
                   __ptext0 364A                     __ptext1 227E                     __ptext2 146E  
                   __ptext3 135C                     __ptext4 1DB4                     __ptext5 1952  
                   __ptext6 1790                     __ptext7 1694                     __ptext8 2070  
                   __ptext9 2D12     __size_of_glcd_SetCursor 0068            ___awmod@dividend 0023  
   __size_of_glcd_PlotPixel 00D2                     main@tab 0100        end_of_initialization 1500  
           _glcd_draw_shape 150A            main@formeEnCours 005D                     menu@fin 001E  
            ___omul@product 0011               __Lmediumconst 0000                     postdec1 000FE5  
                   postdec2 000FDD                  ??_putPiece 0007         glcd_draw_cube@color 001A  
                   postinc0 000FEE                     postinc2 000FDE              eraseLine@j_317 0011  
   __size_of_glcd_WriteByte 003A                  glcd_Rect@i 0017                  glcd_Rect@j 0018  
                 _PORTCbits 000F82                   _TRISCbits 000F94                  makeForme@i 0003  
                makeForme@j 000B                 putPiece@tab 0001     __size_of_glcd_draw_cube 0060  
                main@points 00BF                  eraseLine@i 0013                  eraseLine@j 0015  
       checkCollision@forme 0003              __end_of___omul 19F0              __end_of___wmul 132C  
               ?_menuTetris 0001       __size_of_initMyPIC18F 0030  glcd_print_tab@tabAffichage 001C  
       start_initialization 14BA     __end_of_glcd_draw_shape 1568     __size_of_glcd_print_tab 00C0  
        glcd_SetCursor@side 000C          glcd_SetCursor@xpos 000D          glcd_SetCursor@ypos 000B  
         ___omul@multiplier 0001                _initMyPIC18F 132C           changePos@position 0001  
              checkLine@tab 0007                    ??___omul 0011                    ??___wmul 0005  
      glcd_FillScreen@color 000B                 __pdataBANK0 0060       __end_of_transformForm 2774  
            _glcd_SetCursor 162C                 __pbssCOMRAM 005F               __pcstackBANK0 00B5  
             __pcstackBANK1 0100              _glcd_PlotPixel 1CE2         __size_of_menuTetris 020E  
                 _checkLine 181C                   _changePos 138C              _glcd_WriteByte 13BE  
                  ?___awdiv 0001                    ?___awmod 0023                   _glcd_Init 18B4  
                  ?_affMenu 0001                   _glcd_Rect 1AA0                    ?___lwmod 0001  
         __size_of_putPiece 008C      __end_of_glcd_SetCursor 1694                   _makeForme 2774  
                 _eraseLine 1E92      __end_of_glcd_PlotPixel 1DB4            ?_glcd_draw_shape 001C  
    __size_of_glcd_ReadByte 003A              __size_of_srand 0030              ___wmul@product 0005  
                  _LATBbits 000F8A                  ?_checkLine 0007              _glcd_draw_cube 1568  
                 _partition 0060                  ?_changePos 0001     __size_of_checkCollision 00F0  
    __end_of_glcd_WriteByte 13F8                   main@F3280 01E4                   main@F3284 01DC  
                 main@F3288 0400                  ?_glcd_Init 0001                  ?_glcd_Rect 0012  
           ?_glcd_SetCursor 000B                  ?_makeForme 0001                  ?_eraseLine 0007  
                 main@i_274 0057                   main@i_276 005B                   main@i_277 00B5  
                 main@j_275 0059                   main@j_278 00B7           ___wmul@multiplier 0001  
                 main@delay 0051             ?_glcd_PlotPixel 000B                   main@forme 0049  
            glcd_Rect@color 0015    __size_of_glcd_FillScreen 0080                   main@verif 0047  
                 copy_data0 14CE      __end_of_glcd_draw_cube 15C8              _glcd_print_tab 1B5E  
           checkCollision@i 0010            glcd_FillScreen@i 000D            glcd_FillScreen@j 000C  
                  __Hrparam 0000             ?_glcd_WriteByte 0009                    __Lrparam 0000  
             _glcd_ReadByte 13F8            __size_of___awdiv 00C4            __size_of___awmod 00B0  
          __size_of_affMenu 0938                ??_menuTetris 001C            __size_of___lwmod 0064  
           checkLine@nbTrue 000E                    __ptext10 2774                    __ptext11 132C  
                  __ptext20 18B4                    __ptext12 1B5E                    __ptext21 1710  
                  __ptext13 150A                    __ptext22 13BE                    __ptext14 1568  
                  __ptext23 1E92                    __ptext15 1AA0                    __ptext24 181C  
                  __ptext16 1CE2                    __ptext25 1306                    __ptext17 13F8  
                  __ptext26 1F80                    __ptext18 1C1E                    __ptext27 138C  
                  __ptext19 162C                    __ptext28 15C8                    __ptext29 19F0  
    __end_of_glcd_print_tab 1C1E             ?_glcd_draw_cube 0019               __size_of_main 09B6  
               ??_checkLine 000B               __size_of_menu 007C               __size_of_rand 00DE  
             __size_of_time 004C                 ??_changePos 0003          __end_of_menuTetris 227E  
            ?_glcd_ReadByte 0001               glcd_Init@mode 000E                    _putPiece 1790  
               ??_glcd_Init 000E                 ??_glcd_Rect 0016              transformForm@a 0035  
            transformForm@i 0021              transformForm@j 0023              transformForm@x 0003  
            transformForm@y 0005                   putPiece@i 000F                    main@line 00B9  
               ??_makeForme 0005                 ??_eraseLine 000D             ?_glcd_print_tab 001C  
       glcd_PlotPixel@color 000C           ??_glcd_FillScreen 000B            ___lwmod@dividend 0001  
            _checkCollision 1F80            glcd_draw_shape@j 0023          glcd_PlotPixel@data 0010  
        glcd_PlotPixel@side 0011          glcd_PlotPixel@xpos 000F          glcd_PlotPixel@ypos 000B  
           ___lwmod@divisor 0003             ___lwmod@counter 0005             eraseLine@points 000B  
           glcd_draw_cube@x 0019             glcd_draw_cube@y 001B           glcd_ReadByte@data 0002  
         glcd_ReadByte@side 0001                 glcd_Rect@xe 0013                 glcd_Rect@ye 0014  
               glcd_Rect@xs 0016                 glcd_Rect@ys 0012      __end_of_checkCollision 2070  
    __size_of_transformForm 04F6             ??_glcd_ReadByte 0001            ??_glcd_SetCursor 000C  
